
MainControlECU.elf:     file format elf32-littlearm

Sections:
Idx Name          Size      VMA       LMA       File off  Algn
  0 .isr_vector   00000130  08000000  08000000  00010000  2**0
                  CONTENTS, ALLOC, LOAD, READONLY, DATA
  1 .text         000025e4  08000130  08000130  00010130  2**2
                  CONTENTS, ALLOC, LOAD, READONLY, CODE
  2 .rodata       00000164  08002714  08002714  00012714  2**2
                  CONTENTS, ALLOC, LOAD, READONLY, DATA
  3 .ARM.extab    00000000  08002878  08002878  00020030  2**0
                  CONTENTS
  4 .ARM          00000000  08002878  08002878  00020030  2**0
                  CONTENTS
  5 .preinit_array 00000000  08002878  08002878  00020030  2**0
                  CONTENTS, ALLOC, LOAD, DATA
  6 .init_array   00000004  08002878  08002878  00012878  2**2
                  CONTENTS, ALLOC, LOAD, DATA
  7 .fini_array   00000004  0800287c  0800287c  0001287c  2**2
                  CONTENTS, ALLOC, LOAD, DATA
  8 .data         00000030  20000000  08002880  00020000  2**2
                  CONTENTS, ALLOC, LOAD, DATA
  9 .bss          00000100  20000030  080028b0  00020030  2**2
                  ALLOC
 10 ._user_heap_stack 00000600  20000130  080028b0  00020130  2**0
                  ALLOC
 11 .ARM.attributes 00000029  00000000  00000000  00020030  2**0
                  CONTENTS, READONLY
 12 .debug_info   00006820  00000000  00000000  00020059  2**0
                  CONTENTS, READONLY, DEBUGGING
 13 .debug_abbrev 00001460  00000000  00000000  00026879  2**0
                  CONTENTS, READONLY, DEBUGGING
 14 .debug_loc    0000209c  00000000  00000000  00027cd9  2**0
                  CONTENTS, READONLY, DEBUGGING
 15 .debug_aranges 00000558  00000000  00000000  00029d78  2**3
                  CONTENTS, READONLY, DEBUGGING
 16 .debug_ranges 00000460  00000000  00000000  0002a2d0  2**3
                  CONTENTS, READONLY, DEBUGGING
 17 .debug_macro  00003591  00000000  00000000  0002a730  2**0
                  CONTENTS, READONLY, DEBUGGING
 18 .debug_line   00005adf  00000000  00000000  0002dcc1  2**0
                  CONTENTS, READONLY, DEBUGGING
 19 .debug_str    0000e2b9  00000000  00000000  000337a0  2**0
                  CONTENTS, READONLY, DEBUGGING
 20 .comment      0000007b  00000000  00000000  00041a59  2**0
                  CONTENTS, READONLY
 21 .debug_frame  00001174  00000000  00000000  00041ad4  2**2
                  CONTENTS, READONLY, DEBUGGING

Disassembly of section .text:

08000130 <__do_global_dtors_aux>:
 8000130:	b510      	push	{r4, lr}
 8000132:	4c05      	ldr	r4, [pc, #20]	; (8000148 <__do_global_dtors_aux+0x18>)
 8000134:	7823      	ldrb	r3, [r4, #0]
 8000136:	b933      	cbnz	r3, 8000146 <__do_global_dtors_aux+0x16>
 8000138:	4b04      	ldr	r3, [pc, #16]	; (800014c <__do_global_dtors_aux+0x1c>)
 800013a:	b113      	cbz	r3, 8000142 <__do_global_dtors_aux+0x12>
 800013c:	4804      	ldr	r0, [pc, #16]	; (8000150 <__do_global_dtors_aux+0x20>)
 800013e:	f3af 8000 	nop.w
 8000142:	2301      	movs	r3, #1
 8000144:	7023      	strb	r3, [r4, #0]
 8000146:	bd10      	pop	{r4, pc}
 8000148:	20000030 	.word	0x20000030
 800014c:	00000000 	.word	0x00000000
 8000150:	080026fc 	.word	0x080026fc

08000154 <frame_dummy>:
 8000154:	b508      	push	{r3, lr}
 8000156:	4b03      	ldr	r3, [pc, #12]	; (8000164 <frame_dummy+0x10>)
 8000158:	b11b      	cbz	r3, 8000162 <frame_dummy+0xe>
 800015a:	4903      	ldr	r1, [pc, #12]	; (8000168 <frame_dummy+0x14>)
 800015c:	4803      	ldr	r0, [pc, #12]	; (800016c <frame_dummy+0x18>)
 800015e:	f3af 8000 	nop.w
 8000162:	bd08      	pop	{r3, pc}
 8000164:	00000000 	.word	0x00000000
 8000168:	20000034 	.word	0x20000034
 800016c:	080026fc 	.word	0x080026fc

08000170 <strcmp>:
 8000170:	f810 2b01 	ldrb.w	r2, [r0], #1
 8000174:	f811 3b01 	ldrb.w	r3, [r1], #1
 8000178:	2a01      	cmp	r2, #1
 800017a:	bf28      	it	cs
 800017c:	429a      	cmpcs	r2, r3
 800017e:	d0f7      	beq.n	8000170 <strcmp>
 8000180:	1ad0      	subs	r0, r2, r3
 8000182:	4770      	bx	lr

08000184 <main>:
 ******************************************************************************
 */
#include "APP.h"

int main(void)
{
 8000184:	b580      	push	{r7, lr}
 8000186:	af00      	add	r7, sp, #0

	Dashboard_ECU_APP_SETUP();
 8000188:	f000 f82d 	bl	80001e6 <Dashboard_ECU_APP_SETUP>
  
  	while (1) 
	{
		Dashboard_ECU_APP_Loop();
 800018c:	f000 f834 	bl	80001f8 <Dashboard_ECU_APP_Loop>
 8000190:	e7fc      	b.n	800018c <main+0x8>
	...

08000194 <Reset_Handler>:

  .section .text.Reset_Handler
  .weak Reset_Handler
  .type Reset_Handler, %function
Reset_Handler:
  ldr   r0, =_estack
 8000194:	480d      	ldr	r0, [pc, #52]	; (80001cc <LoopForever+0x2>)
  mov   sp, r0          /* set stack pointer */
 8000196:	4685      	mov	sp, r0
/* Call the clock system intitialization function.*/
  bl  SystemInit
 8000198:	f3af 8000 	nop.w

/* Copy the data segment initializers from flash to SRAM */
  ldr r0, =_sdata
 800019c:	480c      	ldr	r0, [pc, #48]	; (80001d0 <LoopForever+0x6>)
  ldr r1, =_edata
 800019e:	490d      	ldr	r1, [pc, #52]	; (80001d4 <LoopForever+0xa>)
  ldr r2, =_sidata
 80001a0:	4a0d      	ldr	r2, [pc, #52]	; (80001d8 <LoopForever+0xe>)
  movs r3, #0
 80001a2:	2300      	movs	r3, #0
  b LoopCopyDataInit
 80001a4:	e002      	b.n	80001ac <LoopCopyDataInit>

080001a6 <CopyDataInit>:

CopyDataInit:
  ldr r4, [r2, r3]
 80001a6:	58d4      	ldr	r4, [r2, r3]
  str r4, [r0, r3]
 80001a8:	50c4      	str	r4, [r0, r3]
  adds r3, r3, #4
 80001aa:	3304      	adds	r3, #4

080001ac <LoopCopyDataInit>:

LoopCopyDataInit:
  adds r4, r0, r3
 80001ac:	18c4      	adds	r4, r0, r3
  cmp r4, r1
 80001ae:	428c      	cmp	r4, r1
  bcc CopyDataInit
 80001b0:	d3f9      	bcc.n	80001a6 <CopyDataInit>

/* Zero fill the bss segment. */
  ldr r2, =_sbss
 80001b2:	4a0a      	ldr	r2, [pc, #40]	; (80001dc <LoopForever+0x12>)
  ldr r4, =_ebss
 80001b4:	4c0a      	ldr	r4, [pc, #40]	; (80001e0 <LoopForever+0x16>)
  movs r3, #0
 80001b6:	2300      	movs	r3, #0
  b LoopFillZerobss
 80001b8:	e001      	b.n	80001be <LoopFillZerobss>

080001ba <FillZerobss>:

FillZerobss:
  str  r3, [r2]
 80001ba:	6013      	str	r3, [r2, #0]
  adds r2, r2, #4
 80001bc:	3204      	adds	r2, #4

080001be <LoopFillZerobss>:

LoopFillZerobss:
  cmp r2, r4
 80001be:	42a2      	cmp	r2, r4
  bcc FillZerobss
 80001c0:	d3fb      	bcc.n	80001ba <FillZerobss>

/* Call static constructors */
  bl __libc_init_array
 80001c2:	f002 fa6f 	bl	80026a4 <__libc_init_array>
/* Call the application's entry point.*/
  bl main
 80001c6:	f7ff ffdd 	bl	8000184 <main>

080001ca <LoopForever>:

LoopForever:
    b LoopForever
 80001ca:	e7fe      	b.n	80001ca <LoopForever>
  ldr   r0, =_estack
 80001cc:	20002800 	.word	0x20002800
  ldr r0, =_sdata
 80001d0:	20000000 	.word	0x20000000
  ldr r1, =_edata
 80001d4:	20000030 	.word	0x20000030
  ldr r2, =_sidata
 80001d8:	08002880 	.word	0x08002880
  ldr r2, =_sbss
 80001dc:	20000030 	.word	0x20000030
  ldr r4, =_ebss
 80001e0:	20000130 	.word	0x20000130

080001e4 <ADC1_2_IRQHandler>:
 * @retval : None
*/
  .section .text.Default_Handler,"ax",%progbits
Default_Handler:
Infinite_Loop:
  b Infinite_Loop
 80001e4:	e7fe      	b.n	80001e4 <ADC1_2_IRQHandler>

080001e6 <Dashboard_ECU_APP_SETUP>:
* @brief		:   Function to initialize all the components of the main control ECU.
* Note			:   none.
======================================================================================================================
*/
void Dashboard_ECU_APP_SETUP(void)
{
 80001e6:	b580      	push	{r7, lr}
 80001e8:	af00      	add	r7, sp, #0
    st_Admin_DashboardInit();
 80001ea:	f000 f9cf 	bl	800058c <st_Admin_DashboardInit>

    st_GatesComm_Init();
 80001ee:	f000 fe73 	bl	8000ed8 <st_GatesComm_Init>
}
 80001f2:	bf00      	nop
 80001f4:	bd80      	pop	{r7, pc}
	...

080001f8 <Dashboard_ECU_APP_Loop>:
* @brief		:   Main functionality of the main dashboard ECU.
* Note			:   none.
======================================================================================================================
*/
void Dashboard_ECU_APP_Loop(void)
{
 80001f8:	b580      	push	{r7, lr}
 80001fa:	af00      	add	r7, sp, #0
    Admin_Dashboard_State();
 80001fc:	4b03      	ldr	r3, [pc, #12]	; (800020c <Dashboard_ECU_APP_Loop+0x14>)
 80001fe:	681b      	ldr	r3, [r3, #0]
 8000200:	4798      	blx	r3

    fptr_GateCommState();
 8000202:	4b03      	ldr	r3, [pc, #12]	; (8000210 <Dashboard_ECU_APP_Loop+0x18>)
 8000204:	681b      	ldr	r3, [r3, #0]
 8000206:	4798      	blx	r3
}
 8000208:	bf00      	nop
 800020a:	bd80      	pop	{r7, pc}
 800020c:	200000e8 	.word	0x200000e8
 8000210:	200000e4 	.word	0x200000e4

08000214 <Peripheral_Clock_Init>:
* @brief		  : Enable all the required peripherals clocks.
* Note			  : none.
======================================================================================================================
*/
static void Peripheral_Clock_Init()
{
 8000214:	b480      	push	{r7}
 8000216:	af00      	add	r7, sp, #0
	/*Enable GPIO_A*/
	APB2_PERI_CLOCK_EN(APB2_IOPA);
 8000218:	4b0a      	ldr	r3, [pc, #40]	; (8000244 <Peripheral_Clock_Init+0x30>)
 800021a:	699b      	ldr	r3, [r3, #24]
 800021c:	4a09      	ldr	r2, [pc, #36]	; (8000244 <Peripheral_Clock_Init+0x30>)
 800021e:	f043 0304 	orr.w	r3, r3, #4
 8000222:	6193      	str	r3, [r2, #24]

	/*Enable GPIO_B*/
	APB2_PERI_CLOCK_EN(APB2_IOPB);
 8000224:	4b07      	ldr	r3, [pc, #28]	; (8000244 <Peripheral_Clock_Init+0x30>)
 8000226:	699b      	ldr	r3, [r3, #24]
 8000228:	4a06      	ldr	r2, [pc, #24]	; (8000244 <Peripheral_Clock_Init+0x30>)
 800022a:	f043 0308 	orr.w	r3, r3, #8
 800022e:	6193      	str	r3, [r2, #24]

  /*Enable AFIO*/
	APB2_PERI_CLOCK_EN(APB2_AFIO);
 8000230:	4b04      	ldr	r3, [pc, #16]	; (8000244 <Peripheral_Clock_Init+0x30>)
 8000232:	699b      	ldr	r3, [r3, #24]
 8000234:	4a03      	ldr	r2, [pc, #12]	; (8000244 <Peripheral_Clock_Init+0x30>)
 8000236:	f043 0301 	orr.w	r3, r3, #1
 800023a:	6193      	str	r3, [r2, #24]
}
 800023c:	bf00      	nop
 800023e:	46bd      	mov	sp, r7
 8000240:	bc80      	pop	{r7}
 8000242:	4770      	bx	lr
 8000244:	40021000 	.word	0x40021000

08000248 <st_Admin_BacktoMainMenu>:
* @brief		  : Function to route the user back to the admin interface main menu.
* Note			  : none.
======================================================================================================================
*/
static void st_Admin_BacktoMainMenu(void)
{
 8000248:	b580      	push	{r7, lr}
 800024a:	af00      	add	r7, sp, #0
   pressedKey = Keypad_Get_Char();
 800024c:	f000 ffa4 	bl	8001198 <Keypad_Get_Char>
 8000250:	4603      	mov	r3, r0
 8000252:	461a      	mov	r2, r3
 8000254:	4b05      	ldr	r3, [pc, #20]	; (800026c <st_Admin_BacktoMainMenu+0x24>)
 8000256:	701a      	strb	r2, [r3, #0]

   if(pressedKey == '*')
 8000258:	4b04      	ldr	r3, [pc, #16]	; (800026c <st_Admin_BacktoMainMenu+0x24>)
 800025a:	781b      	ldrb	r3, [r3, #0]
 800025c:	2b2a      	cmp	r3, #42	; 0x2a
 800025e:	d102      	bne.n	8000266 <st_Admin_BacktoMainMenu+0x1e>
   {
      Admin_Dashboard_State = st_Admin_ShowAdminOptions;
 8000260:	4b03      	ldr	r3, [pc, #12]	; (8000270 <st_Admin_BacktoMainMenu+0x28>)
 8000262:	4a04      	ldr	r2, [pc, #16]	; (8000274 <st_Admin_BacktoMainMenu+0x2c>)
 8000264:	601a      	str	r2, [r3, #0]
   }else{

   }
}
 8000266:	bf00      	nop
 8000268:	bd80      	pop	{r7, pc}
 800026a:	bf00      	nop
 800026c:	2000004c 	.word	0x2000004c
 8000270:	200000e8 	.word	0x200000e8
 8000274:	080008c1 	.word	0x080008c1

08000278 <st_Admin_DisplayAddNewIDMessage>:
* @brief		  : A function to prompt the user to enter a new ID to be registered.
* Note			  : none.
======================================================================================================================
*/
static void st_Admin_DisplayAddNewIDMessage(void)
{
 8000278:	b580      	push	{r7, lr}
 800027a:	af00      	add	r7, sp, #0
  LCD_Clear_Screen();
 800027c:	f001 fa22 	bl	80016c4 <LCD_Clear_Screen>

  if(Glob_AuthIDsCount < AUTHORIZED_IDS_MAX_COUNT)
 8000280:	4b0c      	ldr	r3, [pc, #48]	; (80002b4 <st_Admin_DisplayAddNewIDMessage+0x3c>)
 8000282:	781b      	ldrb	r3, [r3, #0]
 8000284:	2b04      	cmp	r3, #4
 8000286:	d806      	bhi.n	8000296 <st_Admin_DisplayAddNewIDMessage+0x1e>
  {
    LCD_Send_String(stringfy("Enter ID:"));
 8000288:	480b      	ldr	r0, [pc, #44]	; (80002b8 <st_Admin_DisplayAddNewIDMessage+0x40>)
 800028a:	f001 f9bf 	bl	800160c <LCD_Send_String>

    Admin_Dashboard_State = st_Admin_AddNewID;
 800028e:	4b0b      	ldr	r3, [pc, #44]	; (80002bc <st_Admin_DisplayAddNewIDMessage+0x44>)
 8000290:	4a0b      	ldr	r2, [pc, #44]	; (80002c0 <st_Admin_DisplayAddNewIDMessage+0x48>)
 8000292:	601a      	str	r2, [r3, #0]
    LCD_Cursor_XY(LCD_FOURTH_LINE, 0);
    LCD_Send_String(stringfy("main menu => '*'"));

    Admin_Dashboard_State = st_Admin_BacktoMainMenu;
  }
}
 8000294:	e00c      	b.n	80002b0 <st_Admin_DisplayAddNewIDMessage+0x38>
    LCD_Send_String(stringfy("IDs count exceeded"));
 8000296:	480b      	ldr	r0, [pc, #44]	; (80002c4 <st_Admin_DisplayAddNewIDMessage+0x4c>)
 8000298:	f001 f9b8 	bl	800160c <LCD_Send_String>
    LCD_Cursor_XY(LCD_FOURTH_LINE, 0);
 800029c:	2100      	movs	r1, #0
 800029e:	2003      	movs	r0, #3
 80002a0:	f001 f9c8 	bl	8001634 <LCD_Cursor_XY>
    LCD_Send_String(stringfy("main menu => '*'"));
 80002a4:	4808      	ldr	r0, [pc, #32]	; (80002c8 <st_Admin_DisplayAddNewIDMessage+0x50>)
 80002a6:	f001 f9b1 	bl	800160c <LCD_Send_String>
    Admin_Dashboard_State = st_Admin_BacktoMainMenu;
 80002aa:	4b04      	ldr	r3, [pc, #16]	; (80002bc <st_Admin_DisplayAddNewIDMessage+0x44>)
 80002ac:	4a07      	ldr	r2, [pc, #28]	; (80002cc <st_Admin_DisplayAddNewIDMessage+0x54>)
 80002ae:	601a      	str	r2, [r3, #0]
}
 80002b0:	bf00      	nop
 80002b2:	bd80      	pop	{r7, pc}
 80002b4:	2000002c 	.word	0x2000002c
 80002b8:	08002714 	.word	0x08002714
 80002bc:	200000e8 	.word	0x200000e8
 80002c0:	080009c1 	.word	0x080009c1
 80002c4:	08002720 	.word	0x08002720
 80002c8:	08002734 	.word	0x08002734
 80002cc:	08000249 	.word	0x08000249

080002d0 <st_Admin_AddedIDsuccessfully>:
* @brief		  : Function to tell the user that the process of adding a new ID had been successfull.
* Note			  : none.
======================================================================================================================
*/
static void st_Admin_AddedIDsuccessfully(void)
{
 80002d0:	b580      	push	{r7, lr}
 80002d2:	af00      	add	r7, sp, #0
   /*Copy the ID into the main list*/
   strcpy((sint8 *)Glob_DriversIDsList[Glob_AuthIDsCount], (const sint8 *)Glob_tempDriverIDinput);
 80002d4:	4b0f      	ldr	r3, [pc, #60]	; (8000314 <st_Admin_AddedIDsuccessfully+0x44>)
 80002d6:	781b      	ldrb	r3, [r3, #0]
 80002d8:	009b      	lsls	r3, r3, #2
 80002da:	4a0f      	ldr	r2, [pc, #60]	; (8000318 <st_Admin_AddedIDsuccessfully+0x48>)
 80002dc:	4413      	add	r3, r2
 80002de:	490f      	ldr	r1, [pc, #60]	; (800031c <st_Admin_AddedIDsuccessfully+0x4c>)
 80002e0:	4618      	mov	r0, r3
 80002e2:	f002 fa03 	bl	80026ec <strcpy>

   /*Increase the IDs count in the system*/
   Glob_AuthIDsCount++;
 80002e6:	4b0b      	ldr	r3, [pc, #44]	; (8000314 <st_Admin_AddedIDsuccessfully+0x44>)
 80002e8:	781b      	ldrb	r3, [r3, #0]
 80002ea:	3301      	adds	r3, #1
 80002ec:	b2da      	uxtb	r2, r3
 80002ee:	4b09      	ldr	r3, [pc, #36]	; (8000314 <st_Admin_AddedIDsuccessfully+0x44>)
 80002f0:	701a      	strb	r2, [r3, #0]
   
   LCD_Clear_Screen();
 80002f2:	f001 f9e7 	bl	80016c4 <LCD_Clear_Screen>

   LCD_Send_String(stringfy("ID Added successfully"));
 80002f6:	480a      	ldr	r0, [pc, #40]	; (8000320 <st_Admin_AddedIDsuccessfully+0x50>)
 80002f8:	f001 f988 	bl	800160c <LCD_Send_String>
   LCD_Cursor_XY(LCD_FOURTH_LINE, 0);
 80002fc:	2100      	movs	r1, #0
 80002fe:	2003      	movs	r0, #3
 8000300:	f001 f998 	bl	8001634 <LCD_Cursor_XY>
   LCD_Send_String(stringfy("main menu => '*'"));
 8000304:	4807      	ldr	r0, [pc, #28]	; (8000324 <st_Admin_AddedIDsuccessfully+0x54>)
 8000306:	f001 f981 	bl	800160c <LCD_Send_String>

  Admin_Dashboard_State = st_Admin_BacktoMainMenu;
 800030a:	4b07      	ldr	r3, [pc, #28]	; (8000328 <st_Admin_AddedIDsuccessfully+0x58>)
 800030c:	4a07      	ldr	r2, [pc, #28]	; (800032c <st_Admin_AddedIDsuccessfully+0x5c>)
 800030e:	601a      	str	r2, [r3, #0]
}
 8000310:	bf00      	nop
 8000312:	bd80      	pop	{r7, pc}
 8000314:	2000002c 	.word	0x2000002c
 8000318:	20000018 	.word	0x20000018
 800031c:	20000060 	.word	0x20000060
 8000320:	08002748 	.word	0x08002748
 8000324:	08002734 	.word	0x08002734
 8000328:	200000e8 	.word	0x200000e8
 800032c:	08000249 	.word	0x08000249

08000330 <st_Admin_IDalreadyExists>:
* @brief		  : A function to warn the admin if he tries to register an already registered ID.
* Note			  : none.
======================================================================================================================
*/
static void st_Admin_IDalreadyExists(void)
{
 8000330:	b580      	push	{r7, lr}
 8000332:	af00      	add	r7, sp, #0
  LCD_Clear_Screen();
 8000334:	f001 f9c6 	bl	80016c4 <LCD_Clear_Screen>
  LCD_Send_String(stringfy("ID already exist"));
 8000338:	4807      	ldr	r0, [pc, #28]	; (8000358 <st_Admin_IDalreadyExists+0x28>)
 800033a:	f001 f967 	bl	800160c <LCD_Send_String>
  LCD_Cursor_XY(LCD_FOURTH_LINE, 0);
 800033e:	2100      	movs	r1, #0
 8000340:	2003      	movs	r0, #3
 8000342:	f001 f977 	bl	8001634 <LCD_Cursor_XY>
  LCD_Send_String(stringfy("main menu => '*'"));
 8000346:	4805      	ldr	r0, [pc, #20]	; (800035c <st_Admin_IDalreadyExists+0x2c>)
 8000348:	f001 f960 	bl	800160c <LCD_Send_String>
  
  Admin_Dashboard_State = st_Admin_BacktoMainMenu;
 800034c:	4b04      	ldr	r3, [pc, #16]	; (8000360 <st_Admin_IDalreadyExists+0x30>)
 800034e:	4a05      	ldr	r2, [pc, #20]	; (8000364 <st_Admin_IDalreadyExists+0x34>)
 8000350:	601a      	str	r2, [r3, #0]
}
 8000352:	bf00      	nop
 8000354:	bd80      	pop	{r7, pc}
 8000356:	bf00      	nop
 8000358:	08002760 	.word	0x08002760
 800035c:	08002734 	.word	0x08002734
 8000360:	200000e8 	.word	0x200000e8
 8000364:	08000249 	.word	0x08000249

08000368 <st_Admin_RemovedIDsuccessfully>:
* @brief		  : A function to warn the admin if he tries to register an already registered ID.
* Note			  : none.
======================================================================================================================
*/
static void st_Admin_RemovedIDsuccessfully(void)
{
 8000368:	b580      	push	{r7, lr}
 800036a:	af00      	add	r7, sp, #0
  LCD_Clear_Screen();
 800036c:	f001 f9aa 	bl	80016c4 <LCD_Clear_Screen>
  LCD_Send_String(stringfy("ID Deleted!"));
 8000370:	4807      	ldr	r0, [pc, #28]	; (8000390 <st_Admin_RemovedIDsuccessfully+0x28>)
 8000372:	f001 f94b 	bl	800160c <LCD_Send_String>
  LCD_Cursor_XY(LCD_FOURTH_LINE, 0);
 8000376:	2100      	movs	r1, #0
 8000378:	2003      	movs	r0, #3
 800037a:	f001 f95b 	bl	8001634 <LCD_Cursor_XY>
  LCD_Send_String(stringfy("main menu => '*'"));
 800037e:	4805      	ldr	r0, [pc, #20]	; (8000394 <st_Admin_RemovedIDsuccessfully+0x2c>)
 8000380:	f001 f944 	bl	800160c <LCD_Send_String>
  
  Admin_Dashboard_State = st_Admin_BacktoMainMenu;
 8000384:	4b04      	ldr	r3, [pc, #16]	; (8000398 <st_Admin_RemovedIDsuccessfully+0x30>)
 8000386:	4a05      	ldr	r2, [pc, #20]	; (800039c <st_Admin_RemovedIDsuccessfully+0x34>)
 8000388:	601a      	str	r2, [r3, #0]
}
 800038a:	bf00      	nop
 800038c:	bd80      	pop	{r7, pc}
 800038e:	bf00      	nop
 8000390:	08002774 	.word	0x08002774
 8000394:	08002734 	.word	0x08002734
 8000398:	200000e8 	.word	0x200000e8
 800039c:	08000249 	.word	0x08000249

080003a0 <st_Admin_IDnotFound>:
* @brief		  : Function to inform the user that the required ID doesn't exist.
* Note			  : none.
======================================================================================================================
*/
static void st_Admin_IDnotFound(void)
{
 80003a0:	b580      	push	{r7, lr}
 80003a2:	af00      	add	r7, sp, #0
  LCD_Clear_Screen();
 80003a4:	f001 f98e 	bl	80016c4 <LCD_Clear_Screen>
  LCD_Send_String(stringfy("ID Doesn't Exist"));
 80003a8:	4807      	ldr	r0, [pc, #28]	; (80003c8 <st_Admin_IDnotFound+0x28>)
 80003aa:	f001 f92f 	bl	800160c <LCD_Send_String>
  LCD_Cursor_XY(LCD_FOURTH_LINE, 0);
 80003ae:	2100      	movs	r1, #0
 80003b0:	2003      	movs	r0, #3
 80003b2:	f001 f93f 	bl	8001634 <LCD_Cursor_XY>
  LCD_Send_String(stringfy("main menu => '*'"));
 80003b6:	4805      	ldr	r0, [pc, #20]	; (80003cc <st_Admin_IDnotFound+0x2c>)
 80003b8:	f001 f928 	bl	800160c <LCD_Send_String>
  
  Admin_Dashboard_State = st_Admin_BacktoMainMenu;
 80003bc:	4b04      	ldr	r3, [pc, #16]	; (80003d0 <st_Admin_IDnotFound+0x30>)
 80003be:	4a05      	ldr	r2, [pc, #20]	; (80003d4 <st_Admin_IDnotFound+0x34>)
 80003c0:	601a      	str	r2, [r3, #0]

}
 80003c2:	bf00      	nop
 80003c4:	bd80      	pop	{r7, pc}
 80003c6:	bf00      	nop
 80003c8:	08002780 	.word	0x08002780
 80003cc:	08002734 	.word	0x08002734
 80003d0:	200000e8 	.word	0x200000e8
 80003d4:	08000249 	.word	0x08000249

080003d8 <deleteID>:
* @param [in]	: IDindex: index of the element to be removed.
* Note			  : The order of the elements in the list does not matter.
======================================================================================================================
*/
static void deleteID(uint8 IDindex)
{
 80003d8:	b580      	push	{r7, lr}
 80003da:	b082      	sub	sp, #8
 80003dc:	af00      	add	r7, sp, #0
 80003de:	4603      	mov	r3, r0
 80003e0:	71fb      	strb	r3, [r7, #7]
  /*If the ID to be deleted is in the end of the list just decrease the IDs count*/
  if(IDindex < Glob_AuthIDsCount - 1)
 80003e2:	79fa      	ldrb	r2, [r7, #7]
 80003e4:	4b0d      	ldr	r3, [pc, #52]	; (800041c <deleteID+0x44>)
 80003e6:	781b      	ldrb	r3, [r3, #0]
 80003e8:	3b01      	subs	r3, #1
 80003ea:	429a      	cmp	r2, r3
 80003ec:	da0c      	bge.n	8000408 <deleteID+0x30>
  {
    /*Delete the required ID from the list*/
    strcpy((sint8  *)Glob_DriversIDsList[IDindex], (const sint8 *)Glob_DriversIDsList[Glob_AuthIDsCount - 1]);
 80003ee:	79fb      	ldrb	r3, [r7, #7]
 80003f0:	009b      	lsls	r3, r3, #2
 80003f2:	4a0b      	ldr	r2, [pc, #44]	; (8000420 <deleteID+0x48>)
 80003f4:	1898      	adds	r0, r3, r2
 80003f6:	4b09      	ldr	r3, [pc, #36]	; (800041c <deleteID+0x44>)
 80003f8:	781b      	ldrb	r3, [r3, #0]
 80003fa:	3b01      	subs	r3, #1
 80003fc:	009b      	lsls	r3, r3, #2
 80003fe:	4a08      	ldr	r2, [pc, #32]	; (8000420 <deleteID+0x48>)
 8000400:	4413      	add	r3, r2
 8000402:	4619      	mov	r1, r3
 8000404:	f002 f972 	bl	80026ec <strcpy>
  }else{

  }

  Glob_AuthIDsCount--;
 8000408:	4b04      	ldr	r3, [pc, #16]	; (800041c <deleteID+0x44>)
 800040a:	781b      	ldrb	r3, [r3, #0]
 800040c:	3b01      	subs	r3, #1
 800040e:	b2da      	uxtb	r2, r3
 8000410:	4b02      	ldr	r3, [pc, #8]	; (800041c <deleteID+0x44>)
 8000412:	701a      	strb	r2, [r3, #0]
}
 8000414:	bf00      	nop
 8000416:	3708      	adds	r7, #8
 8000418:	46bd      	mov	sp, r7
 800041a:	bd80      	pop	{r7, pc}
 800041c:	2000002c 	.word	0x2000002c
 8000420:	20000018 	.word	0x20000018

08000424 <st_Admin_CheckRepeatedID>:
* @brief		  : FUnction to check if the ID to be registered already exists in the system.
* Note			  : none.
======================================================================================================================
*/
static void st_Admin_CheckRepeatedID(void)
{
 8000424:	b580      	push	{r7, lr}
 8000426:	b082      	sub	sp, #8
 8000428:	af00      	add	r7, sp, #0
  static uint8 counter = 0;
  boolean repeated = FALSE;
 800042a:	2300      	movs	r3, #0
 800042c:	71fb      	strb	r3, [r7, #7]

  if(!strcmp((const sint8 *)Glob_tempDriverIDinput, (const sint8 *)Glob_DriversIDsList[counter]))
 800042e:	4b27      	ldr	r3, [pc, #156]	; (80004cc <st_Admin_CheckRepeatedID+0xa8>)
 8000430:	781b      	ldrb	r3, [r3, #0]
 8000432:	009b      	lsls	r3, r3, #2
 8000434:	4a26      	ldr	r2, [pc, #152]	; (80004d0 <st_Admin_CheckRepeatedID+0xac>)
 8000436:	4413      	add	r3, r2
 8000438:	4619      	mov	r1, r3
 800043a:	4826      	ldr	r0, [pc, #152]	; (80004d4 <st_Admin_CheckRepeatedID+0xb0>)
 800043c:	f7ff fe98 	bl	8000170 <strcmp>
 8000440:	4603      	mov	r3, r0
 8000442:	2b00      	cmp	r3, #0
 8000444:	d101      	bne.n	800044a <st_Admin_CheckRepeatedID+0x26>
  {
      repeated = TRUE;
 8000446:	2301      	movs	r3, #1
 8000448:	71fb      	strb	r3, [r7, #7]
  }else{

  }

  if(repeated)
 800044a:	79fb      	ldrb	r3, [r7, #7]
 800044c:	2b00      	cmp	r3, #0
 800044e:	d017      	beq.n	8000480 <st_Admin_CheckRepeatedID+0x5c>
  {
    if(currentOperation == ADMIN_ADD_ID)
 8000450:	4b21      	ldr	r3, [pc, #132]	; (80004d8 <st_Admin_CheckRepeatedID+0xb4>)
 8000452:	781b      	ldrb	r3, [r3, #0]
 8000454:	2b31      	cmp	r3, #49	; 0x31
 8000456:	d103      	bne.n	8000460 <st_Admin_CheckRepeatedID+0x3c>
    {
      Admin_Dashboard_State = st_Admin_IDalreadyExists;
 8000458:	4b20      	ldr	r3, [pc, #128]	; (80004dc <st_Admin_CheckRepeatedID+0xb8>)
 800045a:	4a21      	ldr	r2, [pc, #132]	; (80004e0 <st_Admin_CheckRepeatedID+0xbc>)
 800045c:	601a      	str	r2, [r3, #0]
 800045e:	e00b      	b.n	8000478 <st_Admin_CheckRepeatedID+0x54>
    }else if(currentOperation == ADMIN_REMOVE_ID)
 8000460:	4b1d      	ldr	r3, [pc, #116]	; (80004d8 <st_Admin_CheckRepeatedID+0xb4>)
 8000462:	781b      	ldrb	r3, [r3, #0]
 8000464:	2b32      	cmp	r3, #50	; 0x32
 8000466:	d107      	bne.n	8000478 <st_Admin_CheckRepeatedID+0x54>
    {
      deleteID(counter);
 8000468:	4b18      	ldr	r3, [pc, #96]	; (80004cc <st_Admin_CheckRepeatedID+0xa8>)
 800046a:	781b      	ldrb	r3, [r3, #0]
 800046c:	4618      	mov	r0, r3
 800046e:	f7ff ffb3 	bl	80003d8 <deleteID>
      Admin_Dashboard_State = st_Admin_RemovedIDsuccessfully;
 8000472:	4b1a      	ldr	r3, [pc, #104]	; (80004dc <st_Admin_CheckRepeatedID+0xb8>)
 8000474:	4a1b      	ldr	r2, [pc, #108]	; (80004e4 <st_Admin_CheckRepeatedID+0xc0>)
 8000476:	601a      	str	r2, [r3, #0]
    }else{

    }

    counter = 0;    
 8000478:	4b14      	ldr	r3, [pc, #80]	; (80004cc <st_Admin_CheckRepeatedID+0xa8>)
 800047a:	2200      	movs	r2, #0
 800047c:	701a      	strb	r2, [r3, #0]
      }else{

      }
    }
  }
}
 800047e:	e021      	b.n	80004c4 <st_Admin_CheckRepeatedID+0xa0>
    counter++;
 8000480:	4b12      	ldr	r3, [pc, #72]	; (80004cc <st_Admin_CheckRepeatedID+0xa8>)
 8000482:	781b      	ldrb	r3, [r3, #0]
 8000484:	3301      	adds	r3, #1
 8000486:	b2da      	uxtb	r2, r3
 8000488:	4b10      	ldr	r3, [pc, #64]	; (80004cc <st_Admin_CheckRepeatedID+0xa8>)
 800048a:	701a      	strb	r2, [r3, #0]
    if(counter < Glob_AuthIDsCount)
 800048c:	4b0f      	ldr	r3, [pc, #60]	; (80004cc <st_Admin_CheckRepeatedID+0xa8>)
 800048e:	781a      	ldrb	r2, [r3, #0]
 8000490:	4b15      	ldr	r3, [pc, #84]	; (80004e8 <st_Admin_CheckRepeatedID+0xc4>)
 8000492:	781b      	ldrb	r3, [r3, #0]
 8000494:	429a      	cmp	r2, r3
 8000496:	d203      	bcs.n	80004a0 <st_Admin_CheckRepeatedID+0x7c>
      Admin_Dashboard_State = st_Admin_CheckRepeatedID;
 8000498:	4b10      	ldr	r3, [pc, #64]	; (80004dc <st_Admin_CheckRepeatedID+0xb8>)
 800049a:	4a14      	ldr	r2, [pc, #80]	; (80004ec <st_Admin_CheckRepeatedID+0xc8>)
 800049c:	601a      	str	r2, [r3, #0]
}
 800049e:	e011      	b.n	80004c4 <st_Admin_CheckRepeatedID+0xa0>
      counter = 0;
 80004a0:	4b0a      	ldr	r3, [pc, #40]	; (80004cc <st_Admin_CheckRepeatedID+0xa8>)
 80004a2:	2200      	movs	r2, #0
 80004a4:	701a      	strb	r2, [r3, #0]
      if(currentOperation == ADMIN_ADD_ID)
 80004a6:	4b0c      	ldr	r3, [pc, #48]	; (80004d8 <st_Admin_CheckRepeatedID+0xb4>)
 80004a8:	781b      	ldrb	r3, [r3, #0]
 80004aa:	2b31      	cmp	r3, #49	; 0x31
 80004ac:	d103      	bne.n	80004b6 <st_Admin_CheckRepeatedID+0x92>
        Admin_Dashboard_State = st_Admin_AddedIDsuccessfully;
 80004ae:	4b0b      	ldr	r3, [pc, #44]	; (80004dc <st_Admin_CheckRepeatedID+0xb8>)
 80004b0:	4a0f      	ldr	r2, [pc, #60]	; (80004f0 <st_Admin_CheckRepeatedID+0xcc>)
 80004b2:	601a      	str	r2, [r3, #0]
}
 80004b4:	e006      	b.n	80004c4 <st_Admin_CheckRepeatedID+0xa0>
      }else if(currentOperation == ADMIN_REMOVE_ID)
 80004b6:	4b08      	ldr	r3, [pc, #32]	; (80004d8 <st_Admin_CheckRepeatedID+0xb4>)
 80004b8:	781b      	ldrb	r3, [r3, #0]
 80004ba:	2b32      	cmp	r3, #50	; 0x32
 80004bc:	d102      	bne.n	80004c4 <st_Admin_CheckRepeatedID+0xa0>
        Admin_Dashboard_State = st_Admin_IDnotFound;
 80004be:	4b07      	ldr	r3, [pc, #28]	; (80004dc <st_Admin_CheckRepeatedID+0xb8>)
 80004c0:	4a0c      	ldr	r2, [pc, #48]	; (80004f4 <st_Admin_CheckRepeatedID+0xd0>)
 80004c2:	601a      	str	r2, [r3, #0]
}
 80004c4:	bf00      	nop
 80004c6:	3708      	adds	r7, #8
 80004c8:	46bd      	mov	sp, r7
 80004ca:	bd80      	pop	{r7, pc}
 80004cc:	20000068 	.word	0x20000068
 80004d0:	20000018 	.word	0x20000018
 80004d4:	20000060 	.word	0x20000060
 80004d8:	2000005d 	.word	0x2000005d
 80004dc:	200000e8 	.word	0x200000e8
 80004e0:	08000331 	.word	0x08000331
 80004e4:	08000369 	.word	0x08000369
 80004e8:	2000002c 	.word	0x2000002c
 80004ec:	08000425 	.word	0x08000425
 80004f0:	080002d1 	.word	0x080002d1
 80004f4:	080003a1 	.word	0x080003a1

080004f8 <st_Admin_DisplayRemoveIDMessage>:
* @brief		  : A function to prompt the user to enter a an ID to be deleted from the system.
* Note			  : none.
======================================================================================================================
*/
static void st_Admin_DisplayRemoveIDMessage(void)
{
 80004f8:	b580      	push	{r7, lr}
 80004fa:	af00      	add	r7, sp, #0
  LCD_Clear_Screen();
 80004fc:	f001 f8e2 	bl	80016c4 <LCD_Clear_Screen>

  if(Glob_AuthIDsCount > 0)
 8000500:	4b0c      	ldr	r3, [pc, #48]	; (8000534 <st_Admin_DisplayRemoveIDMessage+0x3c>)
 8000502:	781b      	ldrb	r3, [r3, #0]
 8000504:	2b00      	cmp	r3, #0
 8000506:	d006      	beq.n	8000516 <st_Admin_DisplayRemoveIDMessage+0x1e>
  {
    LCD_Send_String(stringfy("Enter ID:"));
 8000508:	480b      	ldr	r0, [pc, #44]	; (8000538 <st_Admin_DisplayRemoveIDMessage+0x40>)
 800050a:	f001 f87f 	bl	800160c <LCD_Send_String>

    Admin_Dashboard_State = st_Admin_RemoveID;
 800050e:	4b0b      	ldr	r3, [pc, #44]	; (800053c <st_Admin_DisplayRemoveIDMessage+0x44>)
 8000510:	4a0b      	ldr	r2, [pc, #44]	; (8000540 <st_Admin_DisplayRemoveIDMessage+0x48>)
 8000512:	601a      	str	r2, [r3, #0]
    LCD_Cursor_XY(LCD_FOURTH_LINE, 0);
    LCD_Send_String(stringfy("main menu => '*'"));

    Admin_Dashboard_State = st_Admin_BacktoMainMenu;
  }
}
 8000514:	e00c      	b.n	8000530 <st_Admin_DisplayRemoveIDMessage+0x38>
    LCD_Send_String(stringfy("IDs List Empty"));
 8000516:	480b      	ldr	r0, [pc, #44]	; (8000544 <st_Admin_DisplayRemoveIDMessage+0x4c>)
 8000518:	f001 f878 	bl	800160c <LCD_Send_String>
    LCD_Cursor_XY(LCD_FOURTH_LINE, 0);
 800051c:	2100      	movs	r1, #0
 800051e:	2003      	movs	r0, #3
 8000520:	f001 f888 	bl	8001634 <LCD_Cursor_XY>
    LCD_Send_String(stringfy("main menu => '*'"));
 8000524:	4808      	ldr	r0, [pc, #32]	; (8000548 <st_Admin_DisplayRemoveIDMessage+0x50>)
 8000526:	f001 f871 	bl	800160c <LCD_Send_String>
    Admin_Dashboard_State = st_Admin_BacktoMainMenu;
 800052a:	4b04      	ldr	r3, [pc, #16]	; (800053c <st_Admin_DisplayRemoveIDMessage+0x44>)
 800052c:	4a07      	ldr	r2, [pc, #28]	; (800054c <st_Admin_DisplayRemoveIDMessage+0x54>)
 800052e:	601a      	str	r2, [r3, #0]
}
 8000530:	bf00      	nop
 8000532:	bd80      	pop	{r7, pc}
 8000534:	2000002c 	.word	0x2000002c
 8000538:	08002714 	.word	0x08002714
 800053c:	200000e8 	.word	0x200000e8
 8000540:	08000a69 	.word	0x08000a69
 8000544:	08002794 	.word	0x08002794
 8000548:	08002734 	.word	0x08002734
 800054c:	08000249 	.word	0x08000249

08000550 <SYSTICK_Callback>:

/** @defgroup ISR_CALLBACK_FUNCTION
  * @{
  */
void SYSTICK_Callback(void)
{
 8000550:	b580      	push	{r7, lr}
 8000552:	af00      	add	r7, sp, #0
  static uint8 counter = 0;

  if(counter == TIMEOUT_10_SECONDS)
 8000554:	4b0a      	ldr	r3, [pc, #40]	; (8000580 <SYSTICK_Callback+0x30>)
 8000556:	781b      	ldrb	r3, [r3, #0]
 8000558:	2b04      	cmp	r3, #4
 800055a:	d108      	bne.n	800056e <SYSTICK_Callback+0x1e>
  {
      counter = 0;
 800055c:	4b08      	ldr	r3, [pc, #32]	; (8000580 <SYSTICK_Callback+0x30>)
 800055e:	2200      	movs	r2, #0
 8000560:	701a      	strb	r2, [r3, #0]
      MCAL_SYST_Stop();
 8000562:	f002 f829 	bl	80025b8 <MCAL_SYST_Stop>
      Admin_Dashboard_State = st_Admin_InitialMessage;
 8000566:	4b07      	ldr	r3, [pc, #28]	; (8000584 <SYSTICK_Callback+0x34>)
 8000568:	4a07      	ldr	r2, [pc, #28]	; (8000588 <SYSTICK_Callback+0x38>)
 800056a:	601a      	str	r2, [r3, #0]
  }else{
    counter++;
  }
}
 800056c:	e005      	b.n	800057a <SYSTICK_Callback+0x2a>
    counter++;
 800056e:	4b04      	ldr	r3, [pc, #16]	; (8000580 <SYSTICK_Callback+0x30>)
 8000570:	781b      	ldrb	r3, [r3, #0]
 8000572:	3301      	adds	r3, #1
 8000574:	b2da      	uxtb	r2, r3
 8000576:	4b02      	ldr	r3, [pc, #8]	; (8000580 <SYSTICK_Callback+0x30>)
 8000578:	701a      	strb	r2, [r3, #0]
}
 800057a:	bf00      	nop
 800057c:	bd80      	pop	{r7, pc}
 800057e:	bf00      	nop
 8000580:	20000069 	.word	0x20000069
 8000584:	200000e8 	.word	0x200000e8
 8000588:	080005b1 	.word	0x080005b1

0800058c <st_Admin_DashboardInit>:
* @return       :   none.
* Note			    :   none.
======================================================================================================================
*/
void st_Admin_DashboardInit(void)
{  
 800058c:	b580      	push	{r7, lr}
 800058e:	af00      	add	r7, sp, #0
  /*Enable the required clocks*/
  Peripheral_Clock_Init();
 8000590:	f7ff fe40 	bl	8000214 <Peripheral_Clock_Init>
 
  /*Initialize the LCD module to print messages to the driver*/
  LCD_Init();
 8000594:	f000 feec 	bl	8001370 <LCD_Init>
  
  Keypad_Init();
 8000598:	f000 fdb6 	bl	8001108 <Keypad_Init>

  /*Set the next state*/
  Admin_Dashboard_State = st_Admin_InitialMessage;
 800059c:	4b02      	ldr	r3, [pc, #8]	; (80005a8 <st_Admin_DashboardInit+0x1c>)
 800059e:	4a03      	ldr	r2, [pc, #12]	; (80005ac <st_Admin_DashboardInit+0x20>)
 80005a0:	601a      	str	r2, [r3, #0]
}
 80005a2:	bf00      	nop
 80005a4:	bd80      	pop	{r7, pc}
 80005a6:	bf00      	nop
 80005a8:	200000e8 	.word	0x200000e8
 80005ac:	080005b1 	.word	0x080005b1

080005b0 <st_Admin_InitialMessage>:
* @brief		  :   Function to display the initial welcome message to the user.
* Note			  :   none.
======================================================================================================================
*/
void st_Admin_InitialMessage(void)
{
 80005b0:	b580      	push	{r7, lr}
 80005b2:	af00      	add	r7, sp, #0
    /*Turn off the cursor for a more clean feel*/
    LCD_Send_Command(LCD_CURSOR_OFF);
 80005b4:	200c      	movs	r0, #12
 80005b6:	f000 ff43 	bl	8001440 <LCD_Send_Command>
    
    /*Print the initial message*/
    LCD_Clear_Screen();
 80005ba:	f001 f883 	bl	80016c4 <LCD_Clear_Screen>
    
    LCD_Cursor_XY(LCD_SECOND_LINE, 4);
 80005be:	2104      	movs	r1, #4
 80005c0:	2001      	movs	r0, #1
 80005c2:	f001 f837 	bl	8001634 <LCD_Cursor_XY>
    LCD_Send_String(stringfy("Press '*'"));
 80005c6:	4807      	ldr	r0, [pc, #28]	; (80005e4 <st_Admin_InitialMessage+0x34>)
 80005c8:	f001 f820 	bl	800160c <LCD_Send_String>

    LCD_Cursor_XY(LCD_THIRD_LINE, 4);
 80005cc:	2104      	movs	r1, #4
 80005ce:	2002      	movs	r0, #2
 80005d0:	f001 f830 	bl	8001634 <LCD_Cursor_XY>
    LCD_Send_String(stringfy("to Login"));
 80005d4:	4804      	ldr	r0, [pc, #16]	; (80005e8 <st_Admin_InitialMessage+0x38>)
 80005d6:	f001 f819 	bl	800160c <LCD_Send_String>

    /*Set the next state*/
    Admin_Dashboard_State = st_Admin_GetUserInput;
 80005da:	4b04      	ldr	r3, [pc, #16]	; (80005ec <st_Admin_InitialMessage+0x3c>)
 80005dc:	4a04      	ldr	r2, [pc, #16]	; (80005f0 <st_Admin_InitialMessage+0x40>)
 80005de:	601a      	str	r2, [r3, #0]
}
 80005e0:	bf00      	nop
 80005e2:	bd80      	pop	{r7, pc}
 80005e4:	080027a4 	.word	0x080027a4
 80005e8:	080027b0 	.word	0x080027b0
 80005ec:	200000e8 	.word	0x200000e8
 80005f0:	080005f5 	.word	0x080005f5

080005f4 <st_Admin_GetUserInput>:
* @brief		  :   Function to get the user action.
* Note			  :   none.
======================================================================================================================
*/
void st_Admin_GetUserInput(void)
{   
 80005f4:	b580      	push	{r7, lr}
 80005f6:	af00      	add	r7, sp, #0
    pressedKey = Keypad_Get_Char();
 80005f8:	f000 fdce 	bl	8001198 <Keypad_Get_Char>
 80005fc:	4603      	mov	r3, r0
 80005fe:	461a      	mov	r2, r3
 8000600:	4b07      	ldr	r3, [pc, #28]	; (8000620 <st_Admin_GetUserInput+0x2c>)
 8000602:	701a      	strb	r2, [r3, #0]

    /*Set the next state*/
    if(pressedKey == '*')
 8000604:	4b06      	ldr	r3, [pc, #24]	; (8000620 <st_Admin_GetUserInput+0x2c>)
 8000606:	781b      	ldrb	r3, [r3, #0]
 8000608:	2b2a      	cmp	r3, #42	; 0x2a
 800060a:	d103      	bne.n	8000614 <st_Admin_GetUserInput+0x20>
    {
        Admin_Dashboard_State = st_Admin_LoginMessage;
 800060c:	4b05      	ldr	r3, [pc, #20]	; (8000624 <st_Admin_GetUserInput+0x30>)
 800060e:	4a06      	ldr	r2, [pc, #24]	; (8000628 <st_Admin_GetUserInput+0x34>)
 8000610:	601a      	str	r2, [r3, #0]
    }else{
        Admin_Dashboard_State = st_Admin_GetUserInput;
    }
}
 8000612:	e002      	b.n	800061a <st_Admin_GetUserInput+0x26>
        Admin_Dashboard_State = st_Admin_GetUserInput;
 8000614:	4b03      	ldr	r3, [pc, #12]	; (8000624 <st_Admin_GetUserInput+0x30>)
 8000616:	4a05      	ldr	r2, [pc, #20]	; (800062c <st_Admin_GetUserInput+0x38>)
 8000618:	601a      	str	r2, [r3, #0]
}
 800061a:	bf00      	nop
 800061c:	bd80      	pop	{r7, pc}
 800061e:	bf00      	nop
 8000620:	2000004c 	.word	0x2000004c
 8000624:	200000e8 	.word	0x200000e8
 8000628:	08000631 	.word	0x08000631
 800062c:	080005f5 	.word	0x080005f5

08000630 <st_Admin_LoginMessage>:
* @brief		  :   Function to get the user action.
* Note			  :   none.
======================================================================================================================
*/
void st_Admin_LoginMessage(void)
{
 8000630:	b580      	push	{r7, lr}
 8000632:	af00      	add	r7, sp, #0
    /*Print the login message*/
    LCD_Clear_Screen();
 8000634:	f001 f846 	bl	80016c4 <LCD_Clear_Screen>

    LCD_Send_String(stringfy("UserID:"));
 8000638:	480c      	ldr	r0, [pc, #48]	; (800066c <st_Admin_LoginMessage+0x3c>)
 800063a:	f000 ffe7 	bl	800160c <LCD_Send_String>
    LCD_Cursor_XY(LCD_SECOND_LINE, 0);
 800063e:	2100      	movs	r1, #0
 8000640:	2001      	movs	r0, #1
 8000642:	f000 fff7 	bl	8001634 <LCD_Cursor_XY>
    LCD_Send_String(stringfy("Password:"));
 8000646:	480a      	ldr	r0, [pc, #40]	; (8000670 <st_Admin_LoginMessage+0x40>)
 8000648:	f000 ffe0 	bl	800160c <LCD_Send_String>

    if(loginAttemptsCounter > 1)
 800064c:	4b09      	ldr	r3, [pc, #36]	; (8000674 <st_Admin_LoginMessage+0x44>)
 800064e:	781b      	ldrb	r3, [r3, #0]
 8000650:	2b01      	cmp	r3, #1
 8000652:	d906      	bls.n	8000662 <st_Admin_LoginMessage+0x32>
    {
      LCD_Cursor_XY(LCD_FOURTH_LINE, 0);
 8000654:	2100      	movs	r1, #0
 8000656:	2003      	movs	r0, #3
 8000658:	f000 ffec 	bl	8001634 <LCD_Cursor_XY>
      LCD_Send_String(stringfy("Wrong Login Info"));
 800065c:	4806      	ldr	r0, [pc, #24]	; (8000678 <st_Admin_LoginMessage+0x48>)
 800065e:	f000 ffd5 	bl	800160c <LCD_Send_String>
    }
    /*Set next state*/
    Admin_Dashboard_State = st_Admin_GetUserID;
 8000662:	4b06      	ldr	r3, [pc, #24]	; (800067c <st_Admin_LoginMessage+0x4c>)
 8000664:	4a06      	ldr	r2, [pc, #24]	; (8000680 <st_Admin_LoginMessage+0x50>)
 8000666:	601a      	str	r2, [r3, #0]
}
 8000668:	bf00      	nop
 800066a:	bd80      	pop	{r7, pc}
 800066c:	080027bc 	.word	0x080027bc
 8000670:	080027c4 	.word	0x080027c4
 8000674:	20000014 	.word	0x20000014
 8000678:	080027d0 	.word	0x080027d0
 800067c:	200000e8 	.word	0x200000e8
 8000680:	08000685 	.word	0x08000685

08000684 <st_Admin_GetUserID>:
* @brief		  :   Function to get the user input for the userID.
* Note			  :   none.
======================================================================================================================
*/
void st_Admin_GetUserID(void)
{
 8000684:	b580      	push	{r7, lr}
 8000686:	af00      	add	r7, sp, #0
    LCD_Cursor_XY(LCD_FIRST_LINE, 7 + userInputCount);
 8000688:	4b1d      	ldr	r3, [pc, #116]	; (8000700 <st_Admin_GetUserID+0x7c>)
 800068a:	781b      	ldrb	r3, [r3, #0]
 800068c:	3307      	adds	r3, #7
 800068e:	b2db      	uxtb	r3, r3
 8000690:	4619      	mov	r1, r3
 8000692:	2000      	movs	r0, #0
 8000694:	f000 ffce 	bl	8001634 <LCD_Cursor_XY>
    LCD_Send_Command(LCD_DISPLAY_ON_CURSOR_BLINK);
 8000698:	200f      	movs	r0, #15
 800069a:	f000 fed1 	bl	8001440 <LCD_Send_Command>

    pressedKey = Keypad_Get_Char();
 800069e:	f000 fd7b 	bl	8001198 <Keypad_Get_Char>
 80006a2:	4603      	mov	r3, r0
 80006a4:	461a      	mov	r2, r3
 80006a6:	4b17      	ldr	r3, [pc, #92]	; (8000704 <st_Admin_GetUserID+0x80>)
 80006a8:	701a      	strb	r2, [r3, #0]

    /*Set the next state*/
    if(pressedKey != NULL_CHAR)
 80006aa:	4b16      	ldr	r3, [pc, #88]	; (8000704 <st_Admin_GetUserID+0x80>)
 80006ac:	781b      	ldrb	r3, [r3, #0]
 80006ae:	2b4e      	cmp	r3, #78	; 0x4e
 80006b0:	d00f      	beq.n	80006d2 <st_Admin_GetUserID+0x4e>
    {
        LCD_Send_Char(pressedKey);
 80006b2:	4b14      	ldr	r3, [pc, #80]	; (8000704 <st_Admin_GetUserID+0x80>)
 80006b4:	781b      	ldrb	r3, [r3, #0]
 80006b6:	4618      	mov	r0, r3
 80006b8:	f000 ff30 	bl	800151c <LCD_Send_Char>
        Glob_userIDinput[userInputCount++] = pressedKey;
 80006bc:	4b10      	ldr	r3, [pc, #64]	; (8000700 <st_Admin_GetUserID+0x7c>)
 80006be:	781b      	ldrb	r3, [r3, #0]
 80006c0:	1c5a      	adds	r2, r3, #1
 80006c2:	b2d1      	uxtb	r1, r2
 80006c4:	4a0e      	ldr	r2, [pc, #56]	; (8000700 <st_Admin_GetUserID+0x7c>)
 80006c6:	7011      	strb	r1, [r2, #0]
 80006c8:	461a      	mov	r2, r3
 80006ca:	4b0e      	ldr	r3, [pc, #56]	; (8000704 <st_Admin_GetUserID+0x80>)
 80006cc:	7819      	ldrb	r1, [r3, #0]
 80006ce:	4b0e      	ldr	r3, [pc, #56]	; (8000708 <st_Admin_GetUserID+0x84>)
 80006d0:	5499      	strb	r1, [r3, r2]
    }else{
        
    }

    if(userInputCount >= ADMIN_USERID_SIZE)
 80006d2:	4b0b      	ldr	r3, [pc, #44]	; (8000700 <st_Admin_GetUserID+0x7c>)
 80006d4:	781b      	ldrb	r3, [r3, #0]
 80006d6:	2b03      	cmp	r3, #3
 80006d8:	d90c      	bls.n	80006f4 <st_Admin_GetUserID+0x70>
    {
        Glob_userIDinput[userInputCount] = '\0';
 80006da:	4b09      	ldr	r3, [pc, #36]	; (8000700 <st_Admin_GetUserID+0x7c>)
 80006dc:	781b      	ldrb	r3, [r3, #0]
 80006de:	461a      	mov	r2, r3
 80006e0:	4b09      	ldr	r3, [pc, #36]	; (8000708 <st_Admin_GetUserID+0x84>)
 80006e2:	2100      	movs	r1, #0
 80006e4:	5499      	strb	r1, [r3, r2]
        userInputCount = 0;
 80006e6:	4b06      	ldr	r3, [pc, #24]	; (8000700 <st_Admin_GetUserID+0x7c>)
 80006e8:	2200      	movs	r2, #0
 80006ea:	701a      	strb	r2, [r3, #0]

        /*Set next state*/
        Admin_Dashboard_State = st_Admin_GetUserPassword;
 80006ec:	4b07      	ldr	r3, [pc, #28]	; (800070c <st_Admin_GetUserID+0x88>)
 80006ee:	4a08      	ldr	r2, [pc, #32]	; (8000710 <st_Admin_GetUserID+0x8c>)
 80006f0:	601a      	str	r2, [r3, #0]
    }else{
        /*Stay in the same state*/
        Admin_Dashboard_State = st_Admin_GetUserID;
    }
}
 80006f2:	e002      	b.n	80006fa <st_Admin_GetUserID+0x76>
        Admin_Dashboard_State = st_Admin_GetUserID;
 80006f4:	4b05      	ldr	r3, [pc, #20]	; (800070c <st_Admin_GetUserID+0x88>)
 80006f6:	4a07      	ldr	r2, [pc, #28]	; (8000714 <st_Admin_GetUserID+0x90>)
 80006f8:	601a      	str	r2, [r3, #0]
}
 80006fa:	bf00      	nop
 80006fc:	bd80      	pop	{r7, pc}
 80006fe:	bf00      	nop
 8000700:	2000004d 	.word	0x2000004d
 8000704:	2000004c 	.word	0x2000004c
 8000708:	20000050 	.word	0x20000050
 800070c:	200000e8 	.word	0x200000e8
 8000710:	08000719 	.word	0x08000719
 8000714:	08000685 	.word	0x08000685

08000718 <st_Admin_GetUserPassword>:
* @brief		  :   Function to get the user input for the password.
* Note			  :   none.
======================================================================================================================
*/
void st_Admin_GetUserPassword(void)
{
 8000718:	b580      	push	{r7, lr}
 800071a:	af00      	add	r7, sp, #0
    LCD_Cursor_XY(LCD_SECOND_LINE, 9 + userInputCount);
 800071c:	4b1a      	ldr	r3, [pc, #104]	; (8000788 <st_Admin_GetUserPassword+0x70>)
 800071e:	781b      	ldrb	r3, [r3, #0]
 8000720:	3309      	adds	r3, #9
 8000722:	b2db      	uxtb	r3, r3
 8000724:	4619      	mov	r1, r3
 8000726:	2001      	movs	r0, #1
 8000728:	f000 ff84 	bl	8001634 <LCD_Cursor_XY>
    
    pressedKey = Keypad_Get_Char();
 800072c:	f000 fd34 	bl	8001198 <Keypad_Get_Char>
 8000730:	4603      	mov	r3, r0
 8000732:	461a      	mov	r2, r3
 8000734:	4b15      	ldr	r3, [pc, #84]	; (800078c <st_Admin_GetUserPassword+0x74>)
 8000736:	701a      	strb	r2, [r3, #0]

    /*Set the next state*/
    if(pressedKey != NULL_CHAR)
 8000738:	4b14      	ldr	r3, [pc, #80]	; (800078c <st_Admin_GetUserPassword+0x74>)
 800073a:	781b      	ldrb	r3, [r3, #0]
 800073c:	2b4e      	cmp	r3, #78	; 0x4e
 800073e:	d00d      	beq.n	800075c <st_Admin_GetUserPassword+0x44>
    {   
        LCD_Send_Char('*');
 8000740:	202a      	movs	r0, #42	; 0x2a
 8000742:	f000 feeb 	bl	800151c <LCD_Send_Char>
        Glob_passwordinput[userInputCount++] = pressedKey;
 8000746:	4b10      	ldr	r3, [pc, #64]	; (8000788 <st_Admin_GetUserPassword+0x70>)
 8000748:	781b      	ldrb	r3, [r3, #0]
 800074a:	1c5a      	adds	r2, r3, #1
 800074c:	b2d1      	uxtb	r1, r2
 800074e:	4a0e      	ldr	r2, [pc, #56]	; (8000788 <st_Admin_GetUserPassword+0x70>)
 8000750:	7011      	strb	r1, [r2, #0]
 8000752:	461a      	mov	r2, r3
 8000754:	4b0d      	ldr	r3, [pc, #52]	; (800078c <st_Admin_GetUserPassword+0x74>)
 8000756:	7819      	ldrb	r1, [r3, #0]
 8000758:	4b0d      	ldr	r3, [pc, #52]	; (8000790 <st_Admin_GetUserPassword+0x78>)
 800075a:	5499      	strb	r1, [r3, r2]
    }else{
        
    }

    if(userInputCount >= ADMIN_PASSWORD_SIZE)
 800075c:	4b0a      	ldr	r3, [pc, #40]	; (8000788 <st_Admin_GetUserPassword+0x70>)
 800075e:	781b      	ldrb	r3, [r3, #0]
 8000760:	2b03      	cmp	r3, #3
 8000762:	d90c      	bls.n	800077e <st_Admin_GetUserPassword+0x66>
    {
        Glob_passwordinput[userInputCount] = '\0';
 8000764:	4b08      	ldr	r3, [pc, #32]	; (8000788 <st_Admin_GetUserPassword+0x70>)
 8000766:	781b      	ldrb	r3, [r3, #0]
 8000768:	461a      	mov	r2, r3
 800076a:	4b09      	ldr	r3, [pc, #36]	; (8000790 <st_Admin_GetUserPassword+0x78>)
 800076c:	2100      	movs	r1, #0
 800076e:	5499      	strb	r1, [r3, r2]
        userInputCount = 0;
 8000770:	4b05      	ldr	r3, [pc, #20]	; (8000788 <st_Admin_GetUserPassword+0x70>)
 8000772:	2200      	movs	r2, #0
 8000774:	701a      	strb	r2, [r3, #0]

        /*Set next state*/
        Admin_Dashboard_State = st_Admin_CheckLoginInfo;
 8000776:	4b07      	ldr	r3, [pc, #28]	; (8000794 <st_Admin_GetUserPassword+0x7c>)
 8000778:	4a07      	ldr	r2, [pc, #28]	; (8000798 <st_Admin_GetUserPassword+0x80>)
 800077a:	601a      	str	r2, [r3, #0]
    }else{
        /*Stay in the same state*/
        Admin_Dashboard_State = st_Admin_GetUserPassword;
    }
}
 800077c:	e002      	b.n	8000784 <st_Admin_GetUserPassword+0x6c>
        Admin_Dashboard_State = st_Admin_GetUserPassword;
 800077e:	4b05      	ldr	r3, [pc, #20]	; (8000794 <st_Admin_GetUserPassword+0x7c>)
 8000780:	4a06      	ldr	r2, [pc, #24]	; (800079c <st_Admin_GetUserPassword+0x84>)
 8000782:	601a      	str	r2, [r3, #0]
}
 8000784:	bf00      	nop
 8000786:	bd80      	pop	{r7, pc}
 8000788:	2000004d 	.word	0x2000004d
 800078c:	2000004c 	.word	0x2000004c
 8000790:	20000058 	.word	0x20000058
 8000794:	200000e8 	.word	0x200000e8
 8000798:	080007a1 	.word	0x080007a1
 800079c:	08000719 	.word	0x08000719

080007a0 <st_Admin_CheckLoginInfo>:
* @brief		  :   Function to check if the given login info is valid or not.
* Note			  :   none.
======================================================================================================================
*/
void st_Admin_CheckLoginInfo(void)
{
 80007a0:	b580      	push	{r7, lr}
 80007a2:	b082      	sub	sp, #8
 80007a4:	af00      	add	r7, sp, #0
  uint8 validInfo = INVALID_LOGIN_INFO;
 80007a6:	2300      	movs	r3, #0
 80007a8:	71fb      	strb	r3, [r7, #7]

  uint8 i;
  for(i = 0; i < NUMBER_OF_ADMINS; i++)
 80007aa:	2300      	movs	r3, #0
 80007ac:	71bb      	strb	r3, [r7, #6]
 80007ae:	e022      	b.n	80007f6 <st_Admin_CheckLoginInfo+0x56>
  {
     if(!strcmp((const sint8 *)Glob_adminsList[i].adminUserID, (const sint8 *)Glob_userIDinput) && 
 80007b0:	79ba      	ldrb	r2, [r7, #6]
 80007b2:	4613      	mov	r3, r2
 80007b4:	009b      	lsls	r3, r3, #2
 80007b6:	4413      	add	r3, r2
 80007b8:	005b      	lsls	r3, r3, #1
 80007ba:	4a21      	ldr	r2, [pc, #132]	; (8000840 <st_Admin_CheckLoginInfo+0xa0>)
 80007bc:	4413      	add	r3, r2
 80007be:	4921      	ldr	r1, [pc, #132]	; (8000844 <st_Admin_CheckLoginInfo+0xa4>)
 80007c0:	4618      	mov	r0, r3
 80007c2:	f7ff fcd5 	bl	8000170 <strcmp>
 80007c6:	4603      	mov	r3, r0
 80007c8:	2b00      	cmp	r3, #0
 80007ca:	d111      	bne.n	80007f0 <st_Admin_CheckLoginInfo+0x50>
        !strcmp((const sint8 *)Glob_adminsList[i].adminPassword, (const sint8 *)Glob_passwordinput)) 
 80007cc:	79ba      	ldrb	r2, [r7, #6]
 80007ce:	4613      	mov	r3, r2
 80007d0:	009b      	lsls	r3, r3, #2
 80007d2:	4413      	add	r3, r2
 80007d4:	005b      	lsls	r3, r3, #1
 80007d6:	4a1a      	ldr	r2, [pc, #104]	; (8000840 <st_Admin_CheckLoginInfo+0xa0>)
 80007d8:	4413      	add	r3, r2
 80007da:	3305      	adds	r3, #5
 80007dc:	491a      	ldr	r1, [pc, #104]	; (8000848 <st_Admin_CheckLoginInfo+0xa8>)
 80007de:	4618      	mov	r0, r3
 80007e0:	f7ff fcc6 	bl	8000170 <strcmp>
 80007e4:	4603      	mov	r3, r0
     if(!strcmp((const sint8 *)Glob_adminsList[i].adminUserID, (const sint8 *)Glob_userIDinput) && 
 80007e6:	2b00      	cmp	r3, #0
 80007e8:	d102      	bne.n	80007f0 <st_Admin_CheckLoginInfo+0x50>
     {
        validInfo = VALID_LOGIN_INFO;
 80007ea:	2301      	movs	r3, #1
 80007ec:	71fb      	strb	r3, [r7, #7]
        break;
 80007ee:	e005      	b.n	80007fc <st_Admin_CheckLoginInfo+0x5c>
  for(i = 0; i < NUMBER_OF_ADMINS; i++)
 80007f0:	79bb      	ldrb	r3, [r7, #6]
 80007f2:	3301      	adds	r3, #1
 80007f4:	71bb      	strb	r3, [r7, #6]
 80007f6:	79bb      	ldrb	r3, [r7, #6]
 80007f8:	2b01      	cmp	r3, #1
 80007fa:	d9d9      	bls.n	80007b0 <st_Admin_CheckLoginInfo+0x10>
     }else{

     }
  }

  if(validInfo == VALID_LOGIN_INFO)
 80007fc:	79fb      	ldrb	r3, [r7, #7]
 80007fe:	2b01      	cmp	r3, #1
 8000800:	d106      	bne.n	8000810 <st_Admin_CheckLoginInfo+0x70>
  {
    loginAttemptsCounter = 1;
 8000802:	4b12      	ldr	r3, [pc, #72]	; (800084c <st_Admin_CheckLoginInfo+0xac>)
 8000804:	2201      	movs	r2, #1
 8000806:	701a      	strb	r2, [r3, #0]

    /*Set next state*/
    Admin_Dashboard_State = st_Admin_ShowAdminOptions;
 8000808:	4b11      	ldr	r3, [pc, #68]	; (8000850 <st_Admin_CheckLoginInfo+0xb0>)
 800080a:	4a12      	ldr	r2, [pc, #72]	; (8000854 <st_Admin_CheckLoginInfo+0xb4>)
 800080c:	601a      	str	r2, [r3, #0]

        Admin_Dashboard_State = st_Admin_LoginTimeout;
    }
  }

}
 800080e:	e013      	b.n	8000838 <st_Admin_CheckLoginInfo+0x98>
    if(loginAttemptsCounter < ADMIN_MAX_LOGIN_ATTEMPTS)
 8000810:	4b0e      	ldr	r3, [pc, #56]	; (800084c <st_Admin_CheckLoginInfo+0xac>)
 8000812:	781b      	ldrb	r3, [r3, #0]
 8000814:	2b02      	cmp	r3, #2
 8000816:	d809      	bhi.n	800082c <st_Admin_CheckLoginInfo+0x8c>
        loginAttemptsCounter++;
 8000818:	4b0c      	ldr	r3, [pc, #48]	; (800084c <st_Admin_CheckLoginInfo+0xac>)
 800081a:	781b      	ldrb	r3, [r3, #0]
 800081c:	3301      	adds	r3, #1
 800081e:	b2da      	uxtb	r2, r3
 8000820:	4b0a      	ldr	r3, [pc, #40]	; (800084c <st_Admin_CheckLoginInfo+0xac>)
 8000822:	701a      	strb	r2, [r3, #0]
        Admin_Dashboard_State = st_Admin_LoginMessage;
 8000824:	4b0a      	ldr	r3, [pc, #40]	; (8000850 <st_Admin_CheckLoginInfo+0xb0>)
 8000826:	4a0c      	ldr	r2, [pc, #48]	; (8000858 <st_Admin_CheckLoginInfo+0xb8>)
 8000828:	601a      	str	r2, [r3, #0]
}
 800082a:	e005      	b.n	8000838 <st_Admin_CheckLoginInfo+0x98>
        loginAttemptsCounter = 1;
 800082c:	4b07      	ldr	r3, [pc, #28]	; (800084c <st_Admin_CheckLoginInfo+0xac>)
 800082e:	2201      	movs	r2, #1
 8000830:	701a      	strb	r2, [r3, #0]
        Admin_Dashboard_State = st_Admin_LoginTimeout;
 8000832:	4b07      	ldr	r3, [pc, #28]	; (8000850 <st_Admin_CheckLoginInfo+0xb0>)
 8000834:	4a09      	ldr	r2, [pc, #36]	; (800085c <st_Admin_CheckLoginInfo+0xbc>)
 8000836:	601a      	str	r2, [r3, #0]
}
 8000838:	bf00      	nop
 800083a:	3708      	adds	r7, #8
 800083c:	46bd      	mov	sp, r7
 800083e:	bd80      	pop	{r7, pc}
 8000840:	20000000 	.word	0x20000000
 8000844:	20000050 	.word	0x20000050
 8000848:	20000058 	.word	0x20000058
 800084c:	20000014 	.word	0x20000014
 8000850:	200000e8 	.word	0x200000e8
 8000854:	080008c1 	.word	0x080008c1
 8000858:	08000631 	.word	0x08000631
 800085c:	08000861 	.word	0x08000861

08000860 <st_Admin_LoginTimeout>:
* @brief		  : Timeout the user from tying to login after passing the maximum number of allowed login attempts.
* @note			  : The only way to get out of this state is through the SYSTICK timer handler.
======================================================================================================================
*/
void st_Admin_LoginTimeout(void)
{
 8000860:	b580      	push	{r7, lr}
 8000862:	af00      	add	r7, sp, #0
   LCD_Clear_Screen();
 8000864:	f000 ff2e 	bl	80016c4 <LCD_Clear_Screen>
   /*Turn off the cursor for a more clean feel*/
   LCD_Send_Command(LCD_CURSOR_OFF);
 8000868:	200c      	movs	r0, #12
 800086a:	f000 fde9 	bl	8001440 <LCD_Send_Command>
   
   LCD_Cursor_XY(LCD_SECOND_LINE, 2);
 800086e:	2102      	movs	r1, #2
 8000870:	2001      	movs	r0, #1
 8000872:	f000 fedf 	bl	8001634 <LCD_Cursor_XY>
   LCD_Send_String(stringfy("Try again in"));
 8000876:	4809      	ldr	r0, [pc, #36]	; (800089c <st_Admin_LoginTimeout+0x3c>)
 8000878:	f000 fec8 	bl	800160c <LCD_Send_String>
   LCD_Cursor_XY(LCD_THIRD_LINE, 3);
 800087c:	2103      	movs	r1, #3
 800087e:	2002      	movs	r0, #2
 8000880:	f000 fed8 	bl	8001634 <LCD_Cursor_XY>
   LCD_Send_String(stringfy("10 seconds"));
 8000884:	4806      	ldr	r0, [pc, #24]	; (80008a0 <st_Admin_LoginTimeout+0x40>)
 8000886:	f000 fec1 	bl	800160c <LCD_Send_String>

   /*Start the timer*/
   MCAL_SYST_SetIntervalPeriodic(2000000UL, SYSTICK_Callback);
 800088a:	4906      	ldr	r1, [pc, #24]	; (80008a4 <st_Admin_LoginTimeout+0x44>)
 800088c:	4806      	ldr	r0, [pc, #24]	; (80008a8 <st_Admin_LoginTimeout+0x48>)
 800088e:	f001 fea1 	bl	80025d4 <MCAL_SYST_SetIntervalPeriodic>

   Admin_Dashboard_State = st_Admin_Idle;
 8000892:	4b06      	ldr	r3, [pc, #24]	; (80008ac <st_Admin_LoginTimeout+0x4c>)
 8000894:	4a06      	ldr	r2, [pc, #24]	; (80008b0 <st_Admin_LoginTimeout+0x50>)
 8000896:	601a      	str	r2, [r3, #0]
}
 8000898:	bf00      	nop
 800089a:	bd80      	pop	{r7, pc}
 800089c:	080027e4 	.word	0x080027e4
 80008a0:	080027f4 	.word	0x080027f4
 80008a4:	08000551 	.word	0x08000551
 80008a8:	001e8480 	.word	0x001e8480
 80008ac:	200000e8 	.word	0x200000e8
 80008b0:	080008b5 	.word	0x080008b5

080008b4 <st_Admin_Idle>:
* @brief	    : Function to make the ECU go into idle mode.
* @note			  :
======================================================================================================================
*/
void st_Admin_Idle(void)
{
 80008b4:	b480      	push	{r7}
 80008b6:	af00      	add	r7, sp, #0

}
 80008b8:	bf00      	nop
 80008ba:	46bd      	mov	sp, r7
 80008bc:	bc80      	pop	{r7}
 80008be:	4770      	bx	lr

080008c0 <st_Admin_ShowAdminOptions>:
* @brief		  :   Function to get display the available admin operations on the LCD screen.
* Note			  :   none.
======================================================================================================================
*/
void st_Admin_ShowAdminOptions(void)
{
 80008c0:	b580      	push	{r7, lr}
 80008c2:	af00      	add	r7, sp, #0
    LCD_Clear_Screen();
 80008c4:	f000 fefe 	bl	80016c4 <LCD_Clear_Screen>
    /*Turn off the cursor for a more clean feel*/
    LCD_Send_Command(LCD_CURSOR_OFF);
 80008c8:	200c      	movs	r0, #12
 80008ca:	f000 fdb9 	bl	8001440 <LCD_Send_Command>

    LCD_Send_String(stringfy("1.Add new ID"));
 80008ce:	480e      	ldr	r0, [pc, #56]	; (8000908 <st_Admin_ShowAdminOptions+0x48>)
 80008d0:	f000 fe9c 	bl	800160c <LCD_Send_String>
    LCD_Cursor_XY(LCD_SECOND_LINE, 0);
 80008d4:	2100      	movs	r1, #0
 80008d6:	2001      	movs	r0, #1
 80008d8:	f000 feac 	bl	8001634 <LCD_Cursor_XY>
    LCD_Send_String(stringfy("2.Remove an ID"));
 80008dc:	480b      	ldr	r0, [pc, #44]	; (800090c <st_Admin_ShowAdminOptions+0x4c>)
 80008de:	f000 fe95 	bl	800160c <LCD_Send_String>
    LCD_Cursor_XY(LCD_THIRD_LINE, 0);
 80008e2:	2100      	movs	r1, #0
 80008e4:	2002      	movs	r0, #2
 80008e6:	f000 fea5 	bl	8001634 <LCD_Cursor_XY>
    LCD_Send_String(stringfy("3.Show IDs List"));
 80008ea:	4809      	ldr	r0, [pc, #36]	; (8000910 <st_Admin_ShowAdminOptions+0x50>)
 80008ec:	f000 fe8e 	bl	800160c <LCD_Send_String>
    LCD_Cursor_XY(LCD_FOURTH_LINE, 0);
 80008f0:	2100      	movs	r1, #0
 80008f2:	2003      	movs	r0, #3
 80008f4:	f000 fe9e 	bl	8001634 <LCD_Cursor_XY>
    LCD_Send_String(stringfy("'*' to logout"));
 80008f8:	4806      	ldr	r0, [pc, #24]	; (8000914 <st_Admin_ShowAdminOptions+0x54>)
 80008fa:	f000 fe87 	bl	800160c <LCD_Send_String>

    Admin_Dashboard_State = st_Admin_GetAdminOption;
 80008fe:	4b06      	ldr	r3, [pc, #24]	; (8000918 <st_Admin_ShowAdminOptions+0x58>)
 8000900:	4a06      	ldr	r2, [pc, #24]	; (800091c <st_Admin_ShowAdminOptions+0x5c>)
 8000902:	601a      	str	r2, [r3, #0]
}
 8000904:	bf00      	nop
 8000906:	bd80      	pop	{r7, pc}
 8000908:	08002800 	.word	0x08002800
 800090c:	08002810 	.word	0x08002810
 8000910:	08002820 	.word	0x08002820
 8000914:	08002830 	.word	0x08002830
 8000918:	200000e8 	.word	0x200000e8
 800091c:	08000921 	.word	0x08000921

08000920 <st_Admin_GetAdminOption>:
* @brief		  :   Function to get the required action to be done from the user.
* Note			  :   none.
======================================================================================================================
*/
void st_Admin_GetAdminOption(void)
{
 8000920:	b580      	push	{r7, lr}
 8000922:	af00      	add	r7, sp, #0
  pressedKey = Keypad_Get_Char();
 8000924:	f000 fc38 	bl	8001198 <Keypad_Get_Char>
 8000928:	4603      	mov	r3, r0
 800092a:	461a      	mov	r2, r3
 800092c:	4b1d      	ldr	r3, [pc, #116]	; (80009a4 <st_Admin_GetAdminOption+0x84>)
 800092e:	701a      	strb	r2, [r3, #0]
  LCD_Send_Command(LCD_DISPLAY_ON_CURSOR_BLINK);
 8000930:	200f      	movs	r0, #15
 8000932:	f000 fd85 	bl	8001440 <LCD_Send_Command>

  switch (pressedKey)
 8000936:	4b1b      	ldr	r3, [pc, #108]	; (80009a4 <st_Admin_GetAdminOption+0x84>)
 8000938:	781b      	ldrb	r3, [r3, #0]
 800093a:	3b2a      	subs	r3, #42	; 0x2a
 800093c:	2b09      	cmp	r3, #9
 800093e:	d829      	bhi.n	8000994 <st_Admin_GetAdminOption+0x74>
 8000940:	a201      	add	r2, pc, #4	; (adr r2, 8000948 <st_Admin_GetAdminOption+0x28>)
 8000942:	f852 f023 	ldr.w	pc, [r2, r3, lsl #2]
 8000946:	bf00      	nop
 8000948:	0800098d 	.word	0x0800098d
 800094c:	08000995 	.word	0x08000995
 8000950:	08000995 	.word	0x08000995
 8000954:	08000995 	.word	0x08000995
 8000958:	08000995 	.word	0x08000995
 800095c:	08000995 	.word	0x08000995
 8000960:	08000995 	.word	0x08000995
 8000964:	08000971 	.word	0x08000971
 8000968:	08000979 	.word	0x08000979
 800096c:	08000981 	.word	0x08000981
  {
  case ADMIN_ADD_ID:
    Admin_Dashboard_State = st_Admin_DisplayAddNewIDMessage;
 8000970:	4b0d      	ldr	r3, [pc, #52]	; (80009a8 <st_Admin_GetAdminOption+0x88>)
 8000972:	4a0e      	ldr	r2, [pc, #56]	; (80009ac <st_Admin_GetAdminOption+0x8c>)
 8000974:	601a      	str	r2, [r3, #0]
    break;
 8000976:	e00e      	b.n	8000996 <st_Admin_GetAdminOption+0x76>
  case ADMIN_REMOVE_ID:
    Admin_Dashboard_State = st_Admin_DisplayRemoveIDMessage;
 8000978:	4b0b      	ldr	r3, [pc, #44]	; (80009a8 <st_Admin_GetAdminOption+0x88>)
 800097a:	4a0d      	ldr	r2, [pc, #52]	; (80009b0 <st_Admin_GetAdminOption+0x90>)
 800097c:	601a      	str	r2, [r3, #0]
    break;
 800097e:	e00a      	b.n	8000996 <st_Admin_GetAdminOption+0x76>
  case ADMIN_SHOW_IDS_LIST:
    LCD_Clear_Screen();
 8000980:	f000 fea0 	bl	80016c4 <LCD_Clear_Screen>
    Admin_Dashboard_State = st_Admin_ShowIDsList;   
 8000984:	4b08      	ldr	r3, [pc, #32]	; (80009a8 <st_Admin_GetAdminOption+0x88>)
 8000986:	4a0b      	ldr	r2, [pc, #44]	; (80009b4 <st_Admin_GetAdminOption+0x94>)
 8000988:	601a      	str	r2, [r3, #0]
    break;
 800098a:	e004      	b.n	8000996 <st_Admin_GetAdminOption+0x76>
  case ADMIN_LOGOUT:
    Admin_Dashboard_State = st_Admin_InitialMessage;
 800098c:	4b06      	ldr	r3, [pc, #24]	; (80009a8 <st_Admin_GetAdminOption+0x88>)
 800098e:	4a0a      	ldr	r2, [pc, #40]	; (80009b8 <st_Admin_GetAdminOption+0x98>)
 8000990:	601a      	str	r2, [r3, #0]
    break;
 8000992:	e000      	b.n	8000996 <st_Admin_GetAdminOption+0x76>
  
  default:
    break;
 8000994:	bf00      	nop
  }

  currentOperation = pressedKey;
 8000996:	4b03      	ldr	r3, [pc, #12]	; (80009a4 <st_Admin_GetAdminOption+0x84>)
 8000998:	781a      	ldrb	r2, [r3, #0]
 800099a:	4b08      	ldr	r3, [pc, #32]	; (80009bc <st_Admin_GetAdminOption+0x9c>)
 800099c:	701a      	strb	r2, [r3, #0]
}
 800099e:	bf00      	nop
 80009a0:	bd80      	pop	{r7, pc}
 80009a2:	bf00      	nop
 80009a4:	2000004c 	.word	0x2000004c
 80009a8:	200000e8 	.word	0x200000e8
 80009ac:	08000279 	.word	0x08000279
 80009b0:	080004f9 	.word	0x080004f9
 80009b4:	08000af9 	.word	0x08000af9
 80009b8:	080005b1 	.word	0x080005b1
 80009bc:	2000005d 	.word	0x2000005d

080009c0 <st_Admin_AddNewID>:
* @brief		  :   Function to add a new authorized ID to the garage.
* Note			  :   none.
======================================================================================================================
*/
void st_Admin_AddNewID(void)
{
 80009c0:	b580      	push	{r7, lr}
 80009c2:	af00      	add	r7, sp, #0
    LCD_Cursor_XY(LCD_FIRST_LINE, 9 + userInputCount);
 80009c4:	4b20      	ldr	r3, [pc, #128]	; (8000a48 <st_Admin_AddNewID+0x88>)
 80009c6:	781b      	ldrb	r3, [r3, #0]
 80009c8:	3309      	adds	r3, #9
 80009ca:	b2db      	uxtb	r3, r3
 80009cc:	4619      	mov	r1, r3
 80009ce:	2000      	movs	r0, #0
 80009d0:	f000 fe30 	bl	8001634 <LCD_Cursor_XY>
    
    pressedKey = Keypad_Get_Char();
 80009d4:	f000 fbe0 	bl	8001198 <Keypad_Get_Char>
 80009d8:	4603      	mov	r3, r0
 80009da:	461a      	mov	r2, r3
 80009dc:	4b1b      	ldr	r3, [pc, #108]	; (8000a4c <st_Admin_AddNewID+0x8c>)
 80009de:	701a      	strb	r2, [r3, #0]

    if(pressedKey != NULL_CHAR)
 80009e0:	4b1a      	ldr	r3, [pc, #104]	; (8000a4c <st_Admin_AddNewID+0x8c>)
 80009e2:	781b      	ldrb	r3, [r3, #0]
 80009e4:	2b4e      	cmp	r3, #78	; 0x4e
 80009e6:	d011      	beq.n	8000a0c <st_Admin_AddNewID+0x4c>
    {   
        LCD_Send_Char(pressedKey);
 80009e8:	4b18      	ldr	r3, [pc, #96]	; (8000a4c <st_Admin_AddNewID+0x8c>)
 80009ea:	781b      	ldrb	r3, [r3, #0]
 80009ec:	4618      	mov	r0, r3
 80009ee:	f000 fd95 	bl	800151c <LCD_Send_Char>
        Glob_tempDriverIDinput[userInputCount] = pressedKey;
 80009f2:	4b15      	ldr	r3, [pc, #84]	; (8000a48 <st_Admin_AddNewID+0x88>)
 80009f4:	781b      	ldrb	r3, [r3, #0]
 80009f6:	461a      	mov	r2, r3
 80009f8:	4b14      	ldr	r3, [pc, #80]	; (8000a4c <st_Admin_AddNewID+0x8c>)
 80009fa:	7819      	ldrb	r1, [r3, #0]
 80009fc:	4b14      	ldr	r3, [pc, #80]	; (8000a50 <st_Admin_AddNewID+0x90>)
 80009fe:	5499      	strb	r1, [r3, r2]
        userInputCount++;
 8000a00:	4b11      	ldr	r3, [pc, #68]	; (8000a48 <st_Admin_AddNewID+0x88>)
 8000a02:	781b      	ldrb	r3, [r3, #0]
 8000a04:	3301      	adds	r3, #1
 8000a06:	b2da      	uxtb	r2, r3
 8000a08:	4b0f      	ldr	r3, [pc, #60]	; (8000a48 <st_Admin_AddNewID+0x88>)
 8000a0a:	701a      	strb	r2, [r3, #0]
    }else{
        
    }

    if(userInputCount >= AUTHORIZED_ID_SIZE)
 8000a0c:	4b0e      	ldr	r3, [pc, #56]	; (8000a48 <st_Admin_AddNewID+0x88>)
 8000a0e:	781b      	ldrb	r3, [r3, #0]
 8000a10:	2b02      	cmp	r3, #2
 8000a12:	d914      	bls.n	8000a3e <st_Admin_AddNewID+0x7e>
    {
        Glob_tempDriverIDinput[userInputCount] = '\0';
 8000a14:	4b0c      	ldr	r3, [pc, #48]	; (8000a48 <st_Admin_AddNewID+0x88>)
 8000a16:	781b      	ldrb	r3, [r3, #0]
 8000a18:	461a      	mov	r2, r3
 8000a1a:	4b0d      	ldr	r3, [pc, #52]	; (8000a50 <st_Admin_AddNewID+0x90>)
 8000a1c:	2100      	movs	r1, #0
 8000a1e:	5499      	strb	r1, [r3, r2]
        userInputCount = 0;
 8000a20:	4b09      	ldr	r3, [pc, #36]	; (8000a48 <st_Admin_AddNewID+0x88>)
 8000a22:	2200      	movs	r2, #0
 8000a24:	701a      	strb	r2, [r3, #0]

        /*If there is no registerd IDs in the system no need to check if the ID is repeated*/
        if(Glob_AuthIDsCount == 0)
 8000a26:	4b0b      	ldr	r3, [pc, #44]	; (8000a54 <st_Admin_AddNewID+0x94>)
 8000a28:	781b      	ldrb	r3, [r3, #0]
 8000a2a:	2b00      	cmp	r3, #0
 8000a2c:	d103      	bne.n	8000a36 <st_Admin_AddNewID+0x76>
        {
          /*Set next state*/
          Admin_Dashboard_State = st_Admin_AddedIDsuccessfully;
 8000a2e:	4b0a      	ldr	r3, [pc, #40]	; (8000a58 <st_Admin_AddNewID+0x98>)
 8000a30:	4a0a      	ldr	r2, [pc, #40]	; (8000a5c <st_Admin_AddNewID+0x9c>)
 8000a32:	601a      	str	r2, [r3, #0]

    }else{
        /*Stay in the same state*/
        Admin_Dashboard_State = st_Admin_AddNewID;
    }
}
 8000a34:	e006      	b.n	8000a44 <st_Admin_AddNewID+0x84>
          Admin_Dashboard_State = st_Admin_CheckRepeatedID;
 8000a36:	4b08      	ldr	r3, [pc, #32]	; (8000a58 <st_Admin_AddNewID+0x98>)
 8000a38:	4a09      	ldr	r2, [pc, #36]	; (8000a60 <st_Admin_AddNewID+0xa0>)
 8000a3a:	601a      	str	r2, [r3, #0]
}
 8000a3c:	e002      	b.n	8000a44 <st_Admin_AddNewID+0x84>
        Admin_Dashboard_State = st_Admin_AddNewID;
 8000a3e:	4b06      	ldr	r3, [pc, #24]	; (8000a58 <st_Admin_AddNewID+0x98>)
 8000a40:	4a08      	ldr	r2, [pc, #32]	; (8000a64 <st_Admin_AddNewID+0xa4>)
 8000a42:	601a      	str	r2, [r3, #0]
}
 8000a44:	bf00      	nop
 8000a46:	bd80      	pop	{r7, pc}
 8000a48:	2000004d 	.word	0x2000004d
 8000a4c:	2000004c 	.word	0x2000004c
 8000a50:	20000060 	.word	0x20000060
 8000a54:	2000002c 	.word	0x2000002c
 8000a58:	200000e8 	.word	0x200000e8
 8000a5c:	080002d1 	.word	0x080002d1
 8000a60:	08000425 	.word	0x08000425
 8000a64:	080009c1 	.word	0x080009c1

08000a68 <st_Admin_RemoveID>:
* @brief		  :   Function to remove an existing authorized ID from the garage.
* Note			  :   none.
======================================================================================================================
*/
void st_Admin_RemoveID(void)
{
 8000a68:	b580      	push	{r7, lr}
 8000a6a:	af00      	add	r7, sp, #0
LCD_Cursor_XY(LCD_FIRST_LINE, 9 + userInputCount);
 8000a6c:	4b1c      	ldr	r3, [pc, #112]	; (8000ae0 <st_Admin_RemoveID+0x78>)
 8000a6e:	781b      	ldrb	r3, [r3, #0]
 8000a70:	3309      	adds	r3, #9
 8000a72:	b2db      	uxtb	r3, r3
 8000a74:	4619      	mov	r1, r3
 8000a76:	2000      	movs	r0, #0
 8000a78:	f000 fddc 	bl	8001634 <LCD_Cursor_XY>
    
    pressedKey = Keypad_Get_Char();
 8000a7c:	f000 fb8c 	bl	8001198 <Keypad_Get_Char>
 8000a80:	4603      	mov	r3, r0
 8000a82:	461a      	mov	r2, r3
 8000a84:	4b17      	ldr	r3, [pc, #92]	; (8000ae4 <st_Admin_RemoveID+0x7c>)
 8000a86:	701a      	strb	r2, [r3, #0]

    if(pressedKey != NULL_CHAR)
 8000a88:	4b16      	ldr	r3, [pc, #88]	; (8000ae4 <st_Admin_RemoveID+0x7c>)
 8000a8a:	781b      	ldrb	r3, [r3, #0]
 8000a8c:	2b4e      	cmp	r3, #78	; 0x4e
 8000a8e:	d011      	beq.n	8000ab4 <st_Admin_RemoveID+0x4c>
    {   
        LCD_Send_Char(pressedKey);
 8000a90:	4b14      	ldr	r3, [pc, #80]	; (8000ae4 <st_Admin_RemoveID+0x7c>)
 8000a92:	781b      	ldrb	r3, [r3, #0]
 8000a94:	4618      	mov	r0, r3
 8000a96:	f000 fd41 	bl	800151c <LCD_Send_Char>
        Glob_tempDriverIDinput[userInputCount] = pressedKey;
 8000a9a:	4b11      	ldr	r3, [pc, #68]	; (8000ae0 <st_Admin_RemoveID+0x78>)
 8000a9c:	781b      	ldrb	r3, [r3, #0]
 8000a9e:	461a      	mov	r2, r3
 8000aa0:	4b10      	ldr	r3, [pc, #64]	; (8000ae4 <st_Admin_RemoveID+0x7c>)
 8000aa2:	7819      	ldrb	r1, [r3, #0]
 8000aa4:	4b10      	ldr	r3, [pc, #64]	; (8000ae8 <st_Admin_RemoveID+0x80>)
 8000aa6:	5499      	strb	r1, [r3, r2]
        userInputCount++;
 8000aa8:	4b0d      	ldr	r3, [pc, #52]	; (8000ae0 <st_Admin_RemoveID+0x78>)
 8000aaa:	781b      	ldrb	r3, [r3, #0]
 8000aac:	3301      	adds	r3, #1
 8000aae:	b2da      	uxtb	r2, r3
 8000ab0:	4b0b      	ldr	r3, [pc, #44]	; (8000ae0 <st_Admin_RemoveID+0x78>)
 8000ab2:	701a      	strb	r2, [r3, #0]
    }else{
        
    }

    if(userInputCount >= AUTHORIZED_ID_SIZE)
 8000ab4:	4b0a      	ldr	r3, [pc, #40]	; (8000ae0 <st_Admin_RemoveID+0x78>)
 8000ab6:	781b      	ldrb	r3, [r3, #0]
 8000ab8:	2b02      	cmp	r3, #2
 8000aba:	d90c      	bls.n	8000ad6 <st_Admin_RemoveID+0x6e>
    {
        Glob_tempDriverIDinput[userInputCount] = '\0';
 8000abc:	4b08      	ldr	r3, [pc, #32]	; (8000ae0 <st_Admin_RemoveID+0x78>)
 8000abe:	781b      	ldrb	r3, [r3, #0]
 8000ac0:	461a      	mov	r2, r3
 8000ac2:	4b09      	ldr	r3, [pc, #36]	; (8000ae8 <st_Admin_RemoveID+0x80>)
 8000ac4:	2100      	movs	r1, #0
 8000ac6:	5499      	strb	r1, [r3, r2]
        userInputCount = 0;
 8000ac8:	4b05      	ldr	r3, [pc, #20]	; (8000ae0 <st_Admin_RemoveID+0x78>)
 8000aca:	2200      	movs	r2, #0
 8000acc:	701a      	strb	r2, [r3, #0]

        Admin_Dashboard_State = st_Admin_CheckRepeatedID;
 8000ace:	4b07      	ldr	r3, [pc, #28]	; (8000aec <st_Admin_RemoveID+0x84>)
 8000ad0:	4a07      	ldr	r2, [pc, #28]	; (8000af0 <st_Admin_RemoveID+0x88>)
 8000ad2:	601a      	str	r2, [r3, #0]
    }else{
        /*Stay in the same state*/
        Admin_Dashboard_State = st_Admin_AddNewID;
    }
}
 8000ad4:	e002      	b.n	8000adc <st_Admin_RemoveID+0x74>
        Admin_Dashboard_State = st_Admin_AddNewID;
 8000ad6:	4b05      	ldr	r3, [pc, #20]	; (8000aec <st_Admin_RemoveID+0x84>)
 8000ad8:	4a06      	ldr	r2, [pc, #24]	; (8000af4 <st_Admin_RemoveID+0x8c>)
 8000ada:	601a      	str	r2, [r3, #0]
}
 8000adc:	bf00      	nop
 8000ade:	bd80      	pop	{r7, pc}
 8000ae0:	2000004d 	.word	0x2000004d
 8000ae4:	2000004c 	.word	0x2000004c
 8000ae8:	20000060 	.word	0x20000060
 8000aec:	200000e8 	.word	0x200000e8
 8000af0:	08000425 	.word	0x08000425
 8000af4:	080009c1 	.word	0x080009c1

08000af8 <st_Admin_ShowIDsList>:
* @brief		  :   Function to show all the authorized IDs in the system.
* Note			  :   none.
======================================================================================================================
*/
void st_Admin_ShowIDsList(void)
{
 8000af8:	b580      	push	{r7, lr}
 8000afa:	af00      	add	r7, sp, #0
  static uint8 printedIDcounter = 0;

  if(Glob_AuthIDsCount > 0)
 8000afc:	4b18      	ldr	r3, [pc, #96]	; (8000b60 <st_Admin_ShowIDsList+0x68>)
 8000afe:	781b      	ldrb	r3, [r3, #0]
 8000b00:	2b00      	cmp	r3, #0
 8000b02:	d011      	beq.n	8000b28 <st_Admin_ShowIDsList+0x30>
  {
    LCD_Send_String(Glob_DriversIDsList[printedIDcounter]);
 8000b04:	4b17      	ldr	r3, [pc, #92]	; (8000b64 <st_Admin_ShowIDsList+0x6c>)
 8000b06:	781b      	ldrb	r3, [r3, #0]
 8000b08:	009b      	lsls	r3, r3, #2
 8000b0a:	4a17      	ldr	r2, [pc, #92]	; (8000b68 <st_Admin_ShowIDsList+0x70>)
 8000b0c:	4413      	add	r3, r2
 8000b0e:	4618      	mov	r0, r3
 8000b10:	f000 fd7c 	bl	800160c <LCD_Send_String>
    LCD_Send_Char(',');
 8000b14:	202c      	movs	r0, #44	; 0x2c
 8000b16:	f000 fd01 	bl	800151c <LCD_Send_Char>

    printedIDcounter++;
 8000b1a:	4b12      	ldr	r3, [pc, #72]	; (8000b64 <st_Admin_ShowIDsList+0x6c>)
 8000b1c:	781b      	ldrb	r3, [r3, #0]
 8000b1e:	3301      	adds	r3, #1
 8000b20:	b2da      	uxtb	r2, r3
 8000b22:	4b10      	ldr	r3, [pc, #64]	; (8000b64 <st_Admin_ShowIDsList+0x6c>)
 8000b24:	701a      	strb	r2, [r3, #0]
 8000b26:	e002      	b.n	8000b2e <st_Admin_ShowIDsList+0x36>
  }else{

    LCD_Send_String(stringfy("List Empty"));
 8000b28:	4810      	ldr	r0, [pc, #64]	; (8000b6c <st_Admin_ShowIDsList+0x74>)
 8000b2a:	f000 fd6f 	bl	800160c <LCD_Send_String>
  }


  if(printedIDcounter >= Glob_AuthIDsCount)
 8000b2e:	4b0d      	ldr	r3, [pc, #52]	; (8000b64 <st_Admin_ShowIDsList+0x6c>)
 8000b30:	781a      	ldrb	r2, [r3, #0]
 8000b32:	4b0b      	ldr	r3, [pc, #44]	; (8000b60 <st_Admin_ShowIDsList+0x68>)
 8000b34:	781b      	ldrb	r3, [r3, #0]
 8000b36:	429a      	cmp	r2, r3
 8000b38:	d30d      	bcc.n	8000b56 <st_Admin_ShowIDsList+0x5e>
  {
    printedIDcounter = 0;
 8000b3a:	4b0a      	ldr	r3, [pc, #40]	; (8000b64 <st_Admin_ShowIDsList+0x6c>)
 8000b3c:	2200      	movs	r2, #0
 8000b3e:	701a      	strb	r2, [r3, #0]

    LCD_Cursor_XY(LCD_FOURTH_LINE, 0);
 8000b40:	2100      	movs	r1, #0
 8000b42:	2003      	movs	r0, #3
 8000b44:	f000 fd76 	bl	8001634 <LCD_Cursor_XY>
    LCD_Send_String(stringfy("main menu => '*'"));
 8000b48:	4809      	ldr	r0, [pc, #36]	; (8000b70 <st_Admin_ShowIDsList+0x78>)
 8000b4a:	f000 fd5f 	bl	800160c <LCD_Send_String>

    Admin_Dashboard_State = st_Admin_BacktoMainMenu;
 8000b4e:	4b09      	ldr	r3, [pc, #36]	; (8000b74 <st_Admin_ShowIDsList+0x7c>)
 8000b50:	4a09      	ldr	r2, [pc, #36]	; (8000b78 <st_Admin_ShowIDsList+0x80>)
 8000b52:	601a      	str	r2, [r3, #0]
  }else{

    Admin_Dashboard_State = st_Admin_ShowIDsList;
  }
}
 8000b54:	e002      	b.n	8000b5c <st_Admin_ShowIDsList+0x64>
    Admin_Dashboard_State = st_Admin_ShowIDsList;
 8000b56:	4b07      	ldr	r3, [pc, #28]	; (8000b74 <st_Admin_ShowIDsList+0x7c>)
 8000b58:	4a08      	ldr	r2, [pc, #32]	; (8000b7c <st_Admin_ShowIDsList+0x84>)
 8000b5a:	601a      	str	r2, [r3, #0]
}
 8000b5c:	bf00      	nop
 8000b5e:	bd80      	pop	{r7, pc}
 8000b60:	2000002c 	.word	0x2000002c
 8000b64:	2000006a 	.word	0x2000006a
 8000b68:	20000018 	.word	0x20000018
 8000b6c:	08002840 	.word	0x08002840
 8000b70:	08002734 	.word	0x08002734
 8000b74:	200000e8 	.word	0x200000e8
 8000b78:	08000249 	.word	0x08000249
 8000b7c:	08000af9 	.word	0x08000af9

08000b80 <st_Admin_AuthenticateID>:
* @brief		  :   Function to authenticate the ID of the driver that wants to enter/exit the garage.
* @note			  :   This function is called by the Gates_Communcation module.
======================================================================================================================
*/
void st_Admin_AuthenticateID(void)
{
 8000b80:	b580      	push	{r7, lr}
 8000b82:	b082      	sub	sp, #8
 8000b84:	af00      	add	r7, sp, #0
  static uint8 LOC_u8Counter = 0;
  boolean LOC_BoolValidID = FALSE;
 8000b86:	2300      	movs	r3, #0
 8000b88:	71fb      	strb	r3, [r7, #7]

  /*Check if the list is empty*/
  if(Glob_AuthIDsCount > 0)
 8000b8a:	4b18      	ldr	r3, [pc, #96]	; (8000bec <st_Admin_AuthenticateID+0x6c>)
 8000b8c:	781b      	ldrb	r3, [r3, #0]
 8000b8e:	2b00      	cmp	r3, #0
 8000b90:	d013      	beq.n	8000bba <st_Admin_AuthenticateID+0x3a>
  {
    /*check if the ID matches an ID that exists in the list*/
    if(!strcmp((const sint8 *)Glob_szAuthorizationRequestDriverID, (const sint8 *)Glob_DriversIDsList[LOC_u8Counter]))
 8000b92:	4b17      	ldr	r3, [pc, #92]	; (8000bf0 <st_Admin_AuthenticateID+0x70>)
 8000b94:	781b      	ldrb	r3, [r3, #0]
 8000b96:	009b      	lsls	r3, r3, #2
 8000b98:	4a16      	ldr	r2, [pc, #88]	; (8000bf4 <st_Admin_AuthenticateID+0x74>)
 8000b9a:	4413      	add	r3, r2
 8000b9c:	4619      	mov	r1, r3
 8000b9e:	4816      	ldr	r0, [pc, #88]	; (8000bf8 <st_Admin_AuthenticateID+0x78>)
 8000ba0:	f7ff fae6 	bl	8000170 <strcmp>
 8000ba4:	4603      	mov	r3, r0
 8000ba6:	2b00      	cmp	r3, #0
 8000ba8:	d101      	bne.n	8000bae <st_Admin_AuthenticateID+0x2e>
    {
      LOC_BoolValidID = TRUE;
 8000baa:	2301      	movs	r3, #1
 8000bac:	71fb      	strb	r3, [r7, #7]
    }

    LOC_u8Counter++;
 8000bae:	4b10      	ldr	r3, [pc, #64]	; (8000bf0 <st_Admin_AuthenticateID+0x70>)
 8000bb0:	781b      	ldrb	r3, [r3, #0]
 8000bb2:	3301      	adds	r3, #1
 8000bb4:	b2da      	uxtb	r2, r3
 8000bb6:	4b0e      	ldr	r3, [pc, #56]	; (8000bf0 <st_Admin_AuthenticateID+0x70>)
 8000bb8:	701a      	strb	r2, [r3, #0]
  }else{

  }


  if(LOC_BoolValidID)
 8000bba:	79fb      	ldrb	r3, [r7, #7]
 8000bbc:	2b00      	cmp	r3, #0
 8000bbe:	d005      	beq.n	8000bcc <st_Admin_AuthenticateID+0x4c>
  {
    LOC_u8Counter = 0;
 8000bc0:	4b0b      	ldr	r3, [pc, #44]	; (8000bf0 <st_Admin_AuthenticateID+0x70>)
 8000bc2:	2200      	movs	r2, #0
 8000bc4:	701a      	strb	r2, [r3, #0]

    /*If the ID matches an ID that exists in the list send IDApproved signal*/
    AI_GC_IDApproved();
 8000bc6:	f000 fa83 	bl	80010d0 <AI_GC_IDApproved>

    AI_GC_IDDisapproved();
  }else{

  }
}
 8000bca:	e00a      	b.n	8000be2 <st_Admin_AuthenticateID+0x62>
  else if(LOC_u8Counter >= Glob_AuthIDsCount)
 8000bcc:	4b08      	ldr	r3, [pc, #32]	; (8000bf0 <st_Admin_AuthenticateID+0x70>)
 8000bce:	781a      	ldrb	r2, [r3, #0]
 8000bd0:	4b06      	ldr	r3, [pc, #24]	; (8000bec <st_Admin_AuthenticateID+0x6c>)
 8000bd2:	781b      	ldrb	r3, [r3, #0]
 8000bd4:	429a      	cmp	r2, r3
 8000bd6:	d304      	bcc.n	8000be2 <st_Admin_AuthenticateID+0x62>
    LOC_u8Counter = 0;
 8000bd8:	4b05      	ldr	r3, [pc, #20]	; (8000bf0 <st_Admin_AuthenticateID+0x70>)
 8000bda:	2200      	movs	r2, #0
 8000bdc:	701a      	strb	r2, [r3, #0]
    AI_GC_IDDisapproved();
 8000bde:	f000 fa85 	bl	80010ec <AI_GC_IDDisapproved>
}
 8000be2:	bf00      	nop
 8000be4:	3708      	adds	r7, #8
 8000be6:	46bd      	mov	sp, r7
 8000be8:	bd80      	pop	{r7, pc}
 8000bea:	bf00      	nop
 8000bec:	2000002c 	.word	0x2000002c
 8000bf0:	2000006b 	.word	0x2000006b
 8000bf4:	20000018 	.word	0x20000018
 8000bf8:	20000064 	.word	0x20000064

08000bfc <AI_GC_SendIDForAuthentication>:
* @param [in]	:  ptr_DriverID: pointer to the array holding the Driver ID
* @note			:  none.
======================================================================================================================
*/
void AI_GC_SendIDForAuthentication(uint8* ptr_DriverID)
{ 
 8000bfc:	b580      	push	{r7, lr}
 8000bfe:	b082      	sub	sp, #8
 8000c00:	af00      	add	r7, sp, #0
 8000c02:	6078      	str	r0, [r7, #4]
   /*Copy the driver ID to be authorized*/
   strcpy((sint8  *)Glob_szAuthorizationRequestDriverID, (const sint8  *)ptr_DriverID);
 8000c04:	6879      	ldr	r1, [r7, #4]
 8000c06:	4803      	ldr	r0, [pc, #12]	; (8000c14 <AI_GC_SendIDForAuthentication+0x18>)
 8000c08:	f001 fd70 	bl	80026ec <strcpy>
}
 8000c0c:	bf00      	nop
 8000c0e:	3708      	adds	r7, #8
 8000c10:	46bd      	mov	sp, r7
 8000c12:	bd80      	pop	{r7, pc}
 8000c14:	20000064 	.word	0x20000064

08000c18 <ENTRANCE_GATE_ECU_SPI_TXEmpty_ISR_Callback>:

/** @defgroup ISR_CALLBACK_DEFINITIONS
  * @{
  */
void ENTRANCE_GATE_ECU_SPI_TXEmpty_ISR_Callback(void)
{
 8000c18:	b580      	push	{r7, lr}
 8000c1a:	b082      	sub	sp, #8
 8000c1c:	af00      	add	r7, sp, #0
    static uint8 LOC_u8TransmitCounter = 0;
    static uint8 LOC_u8FailedTrasnsmissionCounter = 0;
    
    if(LOC_u8TransmitCounter == 0)
 8000c1e:	4b2a      	ldr	r3, [pc, #168]	; (8000cc8 <ENTRANCE_GATE_ECU_SPI_TXEmpty_ISR_Callback+0xb0>)
 8000c20:	781b      	ldrb	r3, [r3, #0]
 8000c22:	2b00      	cmp	r3, #0
 8000c24:	d115      	bne.n	8000c52 <ENTRANCE_GATE_ECU_SPI_TXEmpty_ISR_Callback+0x3a>
    {
        MCAL_SPI_ReceiveData(ENTRANCE_GATE_ECU_SPI, (uint16 *)&Glob_sEntranceGateRequest.GateAddress, PollingDisable);
 8000c26:	2201      	movs	r2, #1
 8000c28:	4928      	ldr	r1, [pc, #160]	; (8000ccc <ENTRANCE_GATE_ECU_SPI_TXEmpty_ISR_Callback+0xb4>)
 8000c2a:	4829      	ldr	r0, [pc, #164]	; (8000cd0 <ENTRANCE_GATE_ECU_SPI_TXEmpty_ISR_Callback+0xb8>)
 8000c2c:	f001 fb4a 	bl	80022c4 <MCAL_SPI_ReceiveData>
        
        /*Wait the acknowledge byte from the slave*/
        if(Glob_sEntranceGateRequest.GateAddress != ENTRANCE_GATE_ECU_ADDRESS)
 8000c30:	4b26      	ldr	r3, [pc, #152]	; (8000ccc <ENTRANCE_GATE_ECU_SPI_TXEmpty_ISR_Callback+0xb4>)
 8000c32:	781b      	ldrb	r3, [r3, #0]
 8000c34:	2be7      	cmp	r3, #231	; 0xe7
 8000c36:	d017      	beq.n	8000c68 <ENTRANCE_GATE_ECU_SPI_TXEmpty_ISR_Callback+0x50>
        {
            LOC_u8FailedTrasnsmissionCounter++;
 8000c38:	4b26      	ldr	r3, [pc, #152]	; (8000cd4 <ENTRANCE_GATE_ECU_SPI_TXEmpty_ISR_Callback+0xbc>)
 8000c3a:	781b      	ldrb	r3, [r3, #0]
 8000c3c:	3301      	adds	r3, #1
 8000c3e:	b2da      	uxtb	r2, r3
 8000c40:	4b24      	ldr	r3, [pc, #144]	; (8000cd4 <ENTRANCE_GATE_ECU_SPI_TXEmpty_ISR_Callback+0xbc>)
 8000c42:	701a      	strb	r2, [r3, #0]
            LOC_u8TransmitCounter--;
 8000c44:	4b20      	ldr	r3, [pc, #128]	; (8000cc8 <ENTRANCE_GATE_ECU_SPI_TXEmpty_ISR_Callback+0xb0>)
 8000c46:	781b      	ldrb	r3, [r3, #0]
 8000c48:	3b01      	subs	r3, #1
 8000c4a:	b2da      	uxtb	r2, r3
 8000c4c:	4b1e      	ldr	r3, [pc, #120]	; (8000cc8 <ENTRANCE_GATE_ECU_SPI_TXEmpty_ISR_Callback+0xb0>)
 8000c4e:	701a      	strb	r2, [r3, #0]
 8000c50:	e00a      	b.n	8000c68 <ENTRANCE_GATE_ECU_SPI_TXEmpty_ISR_Callback+0x50>
        }

    }else{
        MCAL_SPI_ReceiveData(ENTRANCE_GATE_ECU_SPI, 
                            (uint16 *)&Glob_sEntranceGateRequest.szDriverID[LOC_u8TransmitCounter - 1], PollingDisable);
 8000c52:	4b1d      	ldr	r3, [pc, #116]	; (8000cc8 <ENTRANCE_GATE_ECU_SPI_TXEmpty_ISR_Callback+0xb0>)
 8000c54:	781b      	ldrb	r3, [r3, #0]
 8000c56:	3b01      	subs	r3, #1
 8000c58:	4a1c      	ldr	r2, [pc, #112]	; (8000ccc <ENTRANCE_GATE_ECU_SPI_TXEmpty_ISR_Callback+0xb4>)
 8000c5a:	4413      	add	r3, r2
 8000c5c:	3301      	adds	r3, #1
        MCAL_SPI_ReceiveData(ENTRANCE_GATE_ECU_SPI, 
 8000c5e:	2201      	movs	r2, #1
 8000c60:	4619      	mov	r1, r3
 8000c62:	481b      	ldr	r0, [pc, #108]	; (8000cd0 <ENTRANCE_GATE_ECU_SPI_TXEmpty_ISR_Callback+0xb8>)
 8000c64:	f001 fb2e 	bl	80022c4 <MCAL_SPI_ReceiveData>
    }

    LOC_u8TransmitCounter++;
 8000c68:	4b17      	ldr	r3, [pc, #92]	; (8000cc8 <ENTRANCE_GATE_ECU_SPI_TXEmpty_ISR_Callback+0xb0>)
 8000c6a:	781b      	ldrb	r3, [r3, #0]
 8000c6c:	3301      	adds	r3, #1
 8000c6e:	b2da      	uxtb	r2, r3
 8000c70:	4b15      	ldr	r3, [pc, #84]	; (8000cc8 <ENTRANCE_GATE_ECU_SPI_TXEmpty_ISR_Callback+0xb0>)
 8000c72:	701a      	strb	r2, [r3, #0]

    /*If we received all the required information add it to the queue*/
    if(LOC_u8TransmitCounter == 4 || LOC_u8FailedTrasnsmissionCounter == 10)
 8000c74:	4b14      	ldr	r3, [pc, #80]	; (8000cc8 <ENTRANCE_GATE_ECU_SPI_TXEmpty_ISR_Callback+0xb0>)
 8000c76:	781b      	ldrb	r3, [r3, #0]
 8000c78:	2b04      	cmp	r3, #4
 8000c7a:	d003      	beq.n	8000c84 <ENTRANCE_GATE_ECU_SPI_TXEmpty_ISR_Callback+0x6c>
 8000c7c:	4b15      	ldr	r3, [pc, #84]	; (8000cd4 <ENTRANCE_GATE_ECU_SPI_TXEmpty_ISR_Callback+0xbc>)
 8000c7e:	781b      	ldrb	r3, [r3, #0]
 8000c80:	2b0a      	cmp	r3, #10
 8000c82:	d114      	bne.n	8000cae <ENTRANCE_GATE_ECU_SPI_TXEmpty_ISR_Callback+0x96>
    {
        if(LOC_u8FailedTrasnsmissionCounter != 10)
 8000c84:	4b13      	ldr	r3, [pc, #76]	; (8000cd4 <ENTRANCE_GATE_ECU_SPI_TXEmpty_ISR_Callback+0xbc>)
 8000c86:	781b      	ldrb	r3, [r3, #0]
 8000c88:	2b0a      	cmp	r3, #10
 8000c8a:	d00c      	beq.n	8000ca6 <ENTRANCE_GATE_ECU_SPI_TXEmpty_ISR_Callback+0x8e>
        {
            Glob_sEntranceGateRequest.szDriverID[LOC_u8TransmitCounter - 1] = '\0';
 8000c8c:	4b0e      	ldr	r3, [pc, #56]	; (8000cc8 <ENTRANCE_GATE_ECU_SPI_TXEmpty_ISR_Callback+0xb0>)
 8000c8e:	781b      	ldrb	r3, [r3, #0]
 8000c90:	3b01      	subs	r3, #1
 8000c92:	4a0e      	ldr	r2, [pc, #56]	; (8000ccc <ENTRANCE_GATE_ECU_SPI_TXEmpty_ISR_Callback+0xb4>)
 8000c94:	4413      	add	r3, r2
 8000c96:	2200      	movs	r2, #0
 8000c98:	705a      	strb	r2, [r3, #1]
            
            FIFO_enqueue(&Glob_sQueueBuffer, Glob_sEntranceGateRequest);
 8000c9a:	4b0c      	ldr	r3, [pc, #48]	; (8000ccc <ENTRANCE_GATE_ECU_SPI_TXEmpty_ISR_Callback+0xb4>)
 8000c9c:	e893 0006 	ldmia.w	r3, {r1, r2}
 8000ca0:	480d      	ldr	r0, [pc, #52]	; (8000cd8 <ENTRANCE_GATE_ECU_SPI_TXEmpty_ISR_Callback+0xc0>)
 8000ca2:	f000 fdcf 	bl	8001844 <FIFO_enqueue>
        }

            LOC_u8TransmitCounter = 0;
 8000ca6:	4b08      	ldr	r3, [pc, #32]	; (8000cc8 <ENTRANCE_GATE_ECU_SPI_TXEmpty_ISR_Callback+0xb0>)
 8000ca8:	2200      	movs	r2, #0
 8000caa:	701a      	strb	r2, [r3, #0]
 8000cac:	e007      	b.n	8000cbe <ENTRANCE_GATE_ECU_SPI_TXEmpty_ISR_Callback+0xa6>
    }else{
        /*Dummy data to receive the information from the slave*/
        uint16 LOC_pu16TxBuffer = 0x0000u;
 8000cae:	2300      	movs	r3, #0
 8000cb0:	80fb      	strh	r3, [r7, #6]

        MCAL_SPI_SendData(ENTRANCE_GATE_ECU_SPI, &LOC_pu16TxBuffer, PollingDisable);    
 8000cb2:	1dbb      	adds	r3, r7, #6
 8000cb4:	2201      	movs	r2, #1
 8000cb6:	4619      	mov	r1, r3
 8000cb8:	4805      	ldr	r0, [pc, #20]	; (8000cd0 <ENTRANCE_GATE_ECU_SPI_TXEmpty_ISR_Callback+0xb8>)
 8000cba:	f001 facb 	bl	8002254 <MCAL_SPI_SendData>
    }
}
 8000cbe:	bf00      	nop
 8000cc0:	3708      	adds	r7, #8
 8000cc2:	46bd      	mov	sp, r7
 8000cc4:	bd80      	pop	{r7, pc}
 8000cc6:	bf00      	nop
 8000cc8:	2000009a 	.word	0x2000009a
 8000ccc:	2000008c 	.word	0x2000008c
 8000cd0:	40013000 	.word	0x40013000
 8000cd4:	2000009b 	.word	0x2000009b
 8000cd8:	2000006c 	.word	0x2000006c

08000cdc <EXIT_GATE_ECU_SPI_TXEmpty_ISR_Callback>:

void EXIT_GATE_ECU_SPI_TXEmpty_ISR_Callback(void)
{
 8000cdc:	b580      	push	{r7, lr}
 8000cde:	b082      	sub	sp, #8
 8000ce0:	af00      	add	r7, sp, #0
    static uint8 LOC_u8TransmitCounter = 0;
    static uint8 LOC_u8FailedTrasnsmissionCounter = 0;
    
    if(LOC_u8TransmitCounter == 0)
 8000ce2:	4b2a      	ldr	r3, [pc, #168]	; (8000d8c <EXIT_GATE_ECU_SPI_TXEmpty_ISR_Callback+0xb0>)
 8000ce4:	781b      	ldrb	r3, [r3, #0]
 8000ce6:	2b00      	cmp	r3, #0
 8000ce8:	d115      	bne.n	8000d16 <EXIT_GATE_ECU_SPI_TXEmpty_ISR_Callback+0x3a>
    {
        MCAL_SPI_ReceiveData(EXIT_GATE_ECU_SPI, (uint16 *)&Glob_sExitGateRequest.GateAddress, PollingDisable);
 8000cea:	2201      	movs	r2, #1
 8000cec:	4928      	ldr	r1, [pc, #160]	; (8000d90 <EXIT_GATE_ECU_SPI_TXEmpty_ISR_Callback+0xb4>)
 8000cee:	4829      	ldr	r0, [pc, #164]	; (8000d94 <EXIT_GATE_ECU_SPI_TXEmpty_ISR_Callback+0xb8>)
 8000cf0:	f001 fae8 	bl	80022c4 <MCAL_SPI_ReceiveData>
        
        /*Wait the acknowledge byte from the slave*/
        if(Glob_sExitGateRequest.GateAddress != EXIT_GATE_ECU_ADDRESS)
 8000cf4:	4b26      	ldr	r3, [pc, #152]	; (8000d90 <EXIT_GATE_ECU_SPI_TXEmpty_ISR_Callback+0xb4>)
 8000cf6:	781b      	ldrb	r3, [r3, #0]
 8000cf8:	2b7e      	cmp	r3, #126	; 0x7e
 8000cfa:	d017      	beq.n	8000d2c <EXIT_GATE_ECU_SPI_TXEmpty_ISR_Callback+0x50>
        {
            LOC_u8FailedTrasnsmissionCounter++;
 8000cfc:	4b26      	ldr	r3, [pc, #152]	; (8000d98 <EXIT_GATE_ECU_SPI_TXEmpty_ISR_Callback+0xbc>)
 8000cfe:	781b      	ldrb	r3, [r3, #0]
 8000d00:	3301      	adds	r3, #1
 8000d02:	b2da      	uxtb	r2, r3
 8000d04:	4b24      	ldr	r3, [pc, #144]	; (8000d98 <EXIT_GATE_ECU_SPI_TXEmpty_ISR_Callback+0xbc>)
 8000d06:	701a      	strb	r2, [r3, #0]
            LOC_u8TransmitCounter--;
 8000d08:	4b20      	ldr	r3, [pc, #128]	; (8000d8c <EXIT_GATE_ECU_SPI_TXEmpty_ISR_Callback+0xb0>)
 8000d0a:	781b      	ldrb	r3, [r3, #0]
 8000d0c:	3b01      	subs	r3, #1
 8000d0e:	b2da      	uxtb	r2, r3
 8000d10:	4b1e      	ldr	r3, [pc, #120]	; (8000d8c <EXIT_GATE_ECU_SPI_TXEmpty_ISR_Callback+0xb0>)
 8000d12:	701a      	strb	r2, [r3, #0]
 8000d14:	e00a      	b.n	8000d2c <EXIT_GATE_ECU_SPI_TXEmpty_ISR_Callback+0x50>
        }

    }else{
        MCAL_SPI_ReceiveData(EXIT_GATE_ECU_SPI, 
                            (uint16 *)&Glob_sExitGateRequest.szDriverID[LOC_u8TransmitCounter - 1], PollingDisable);
 8000d16:	4b1d      	ldr	r3, [pc, #116]	; (8000d8c <EXIT_GATE_ECU_SPI_TXEmpty_ISR_Callback+0xb0>)
 8000d18:	781b      	ldrb	r3, [r3, #0]
 8000d1a:	3b01      	subs	r3, #1
 8000d1c:	4a1c      	ldr	r2, [pc, #112]	; (8000d90 <EXIT_GATE_ECU_SPI_TXEmpty_ISR_Callback+0xb4>)
 8000d1e:	4413      	add	r3, r2
 8000d20:	3301      	adds	r3, #1
        MCAL_SPI_ReceiveData(EXIT_GATE_ECU_SPI, 
 8000d22:	2201      	movs	r2, #1
 8000d24:	4619      	mov	r1, r3
 8000d26:	481b      	ldr	r0, [pc, #108]	; (8000d94 <EXIT_GATE_ECU_SPI_TXEmpty_ISR_Callback+0xb8>)
 8000d28:	f001 facc 	bl	80022c4 <MCAL_SPI_ReceiveData>
    }

    LOC_u8TransmitCounter++;
 8000d2c:	4b17      	ldr	r3, [pc, #92]	; (8000d8c <EXIT_GATE_ECU_SPI_TXEmpty_ISR_Callback+0xb0>)
 8000d2e:	781b      	ldrb	r3, [r3, #0]
 8000d30:	3301      	adds	r3, #1
 8000d32:	b2da      	uxtb	r2, r3
 8000d34:	4b15      	ldr	r3, [pc, #84]	; (8000d8c <EXIT_GATE_ECU_SPI_TXEmpty_ISR_Callback+0xb0>)
 8000d36:	701a      	strb	r2, [r3, #0]

    /*If we received all the required information add it to the queue*/
    if(LOC_u8TransmitCounter == 4 || LOC_u8FailedTrasnsmissionCounter == 10)
 8000d38:	4b14      	ldr	r3, [pc, #80]	; (8000d8c <EXIT_GATE_ECU_SPI_TXEmpty_ISR_Callback+0xb0>)
 8000d3a:	781b      	ldrb	r3, [r3, #0]
 8000d3c:	2b04      	cmp	r3, #4
 8000d3e:	d003      	beq.n	8000d48 <EXIT_GATE_ECU_SPI_TXEmpty_ISR_Callback+0x6c>
 8000d40:	4b15      	ldr	r3, [pc, #84]	; (8000d98 <EXIT_GATE_ECU_SPI_TXEmpty_ISR_Callback+0xbc>)
 8000d42:	781b      	ldrb	r3, [r3, #0]
 8000d44:	2b0a      	cmp	r3, #10
 8000d46:	d114      	bne.n	8000d72 <EXIT_GATE_ECU_SPI_TXEmpty_ISR_Callback+0x96>
    {
        if(LOC_u8FailedTrasnsmissionCounter != 10)
 8000d48:	4b13      	ldr	r3, [pc, #76]	; (8000d98 <EXIT_GATE_ECU_SPI_TXEmpty_ISR_Callback+0xbc>)
 8000d4a:	781b      	ldrb	r3, [r3, #0]
 8000d4c:	2b0a      	cmp	r3, #10
 8000d4e:	d00c      	beq.n	8000d6a <EXIT_GATE_ECU_SPI_TXEmpty_ISR_Callback+0x8e>
        {
            Glob_sExitGateRequest.szDriverID[LOC_u8TransmitCounter - 1] = '\0';
 8000d50:	4b0e      	ldr	r3, [pc, #56]	; (8000d8c <EXIT_GATE_ECU_SPI_TXEmpty_ISR_Callback+0xb0>)
 8000d52:	781b      	ldrb	r3, [r3, #0]
 8000d54:	3b01      	subs	r3, #1
 8000d56:	4a0e      	ldr	r2, [pc, #56]	; (8000d90 <EXIT_GATE_ECU_SPI_TXEmpty_ISR_Callback+0xb4>)
 8000d58:	4413      	add	r3, r2
 8000d5a:	2200      	movs	r2, #0
 8000d5c:	705a      	strb	r2, [r3, #1]
            
            FIFO_enqueue(&Glob_sQueueBuffer, Glob_sExitGateRequest);
 8000d5e:	4b0c      	ldr	r3, [pc, #48]	; (8000d90 <EXIT_GATE_ECU_SPI_TXEmpty_ISR_Callback+0xb4>)
 8000d60:	e893 0006 	ldmia.w	r3, {r1, r2}
 8000d64:	480d      	ldr	r0, [pc, #52]	; (8000d9c <EXIT_GATE_ECU_SPI_TXEmpty_ISR_Callback+0xc0>)
 8000d66:	f000 fd6d 	bl	8001844 <FIFO_enqueue>
        }

            LOC_u8TransmitCounter = 0;
 8000d6a:	4b08      	ldr	r3, [pc, #32]	; (8000d8c <EXIT_GATE_ECU_SPI_TXEmpty_ISR_Callback+0xb0>)
 8000d6c:	2200      	movs	r2, #0
 8000d6e:	701a      	strb	r2, [r3, #0]
 8000d70:	e007      	b.n	8000d82 <EXIT_GATE_ECU_SPI_TXEmpty_ISR_Callback+0xa6>
    }else{
        /*Dummy data to receive the information from the slave*/
        uint16 LOC_pu16TxBuffer = 0x0000u;
 8000d72:	2300      	movs	r3, #0
 8000d74:	80fb      	strh	r3, [r7, #6]

        MCAL_SPI_SendData(EXIT_GATE_ECU_SPI, &LOC_pu16TxBuffer, PollingDisable);    
 8000d76:	1dbb      	adds	r3, r7, #6
 8000d78:	2201      	movs	r2, #1
 8000d7a:	4619      	mov	r1, r3
 8000d7c:	4805      	ldr	r0, [pc, #20]	; (8000d94 <EXIT_GATE_ECU_SPI_TXEmpty_ISR_Callback+0xb8>)
 8000d7e:	f001 fa69 	bl	8002254 <MCAL_SPI_SendData>
    }
}
 8000d82:	bf00      	nop
 8000d84:	3708      	adds	r7, #8
 8000d86:	46bd      	mov	sp, r7
 8000d88:	bd80      	pop	{r7, pc}
 8000d8a:	bf00      	nop
 8000d8c:	2000009c 	.word	0x2000009c
 8000d90:	20000094 	.word	0x20000094
 8000d94:	40003800 	.word	0x40003800
 8000d98:	2000009d 	.word	0x2000009d
 8000d9c:	2000006c 	.word	0x2000006c

08000da0 <EXTI_Line4_ISR_Callback>:
 * @brief The callback function for the external interrupt line connected to the 
 * entrance gate ECU. 
 * 
 */
void EXTI_Line4_ISR_Callback(void)
{
 8000da0:	b580      	push	{r7, lr}
 8000da2:	b082      	sub	sp, #8
 8000da4:	af00      	add	r7, sp, #0
    uint16 LOC_pu16TxBuffer = 0xFFFFu;
 8000da6:	f64f 73ff 	movw	r3, #65535	; 0xffff
 8000daa:	80fb      	strh	r3, [r7, #6]

    MCAL_SPI_SendData(ENTRANCE_GATE_ECU_SPI, &LOC_pu16TxBuffer, PollingDisable);
 8000dac:	1dbb      	adds	r3, r7, #6
 8000dae:	2201      	movs	r2, #1
 8000db0:	4619      	mov	r1, r3
 8000db2:	4803      	ldr	r0, [pc, #12]	; (8000dc0 <EXTI_Line4_ISR_Callback+0x20>)
 8000db4:	f001 fa4e 	bl	8002254 <MCAL_SPI_SendData>
}
 8000db8:	bf00      	nop
 8000dba:	3708      	adds	r7, #8
 8000dbc:	46bd      	mov	sp, r7
 8000dbe:	bd80      	pop	{r7, pc}
 8000dc0:	40013000 	.word	0x40013000

08000dc4 <EXTI_Line12_ISR_Callback>:
 * @brief The callback function for the external interrupt line connected to the 
 * exit gate ECU. 
 * 
 */
void EXTI_Line12_ISR_Callback(void)
{
 8000dc4:	b580      	push	{r7, lr}
 8000dc6:	b082      	sub	sp, #8
 8000dc8:	af00      	add	r7, sp, #0
    uint16 LOC_pu16TxBuffer = 0xFFFFu;
 8000dca:	f64f 73ff 	movw	r3, #65535	; 0xffff
 8000dce:	80fb      	strh	r3, [r7, #6]

    MCAL_SPI_SendData(EXIT_GATE_ECU_SPI, &LOC_pu16TxBuffer, PollingDisable);
 8000dd0:	1dbb      	adds	r3, r7, #6
 8000dd2:	2201      	movs	r2, #1
 8000dd4:	4619      	mov	r1, r3
 8000dd6:	4803      	ldr	r0, [pc, #12]	; (8000de4 <EXTI_Line12_ISR_Callback+0x20>)
 8000dd8:	f001 fa3c 	bl	8002254 <MCAL_SPI_SendData>
}
 8000ddc:	bf00      	nop
 8000dde:	3708      	adds	r7, #8
 8000de0:	46bd      	mov	sp, r7
 8000de2:	bd80      	pop	{r7, pc}
 8000de4:	40003800 	.word	0x40003800

08000de8 <SPI_Init>:

/** @defgroup Private Functions
  * @{
  */
void SPI_Init(void)
{
 8000de8:	b580      	push	{r7, lr}
 8000dea:	b084      	sub	sp, #16
 8000dec:	af00      	add	r7, sp, #0
    SPI_Config_t config;

    /*Entrance Gate SPI*/
    config.SPI_Mode = SPI_MODE_MASTER;
 8000dee:	2304      	movs	r3, #4
 8000df0:	803b      	strh	r3, [r7, #0]
	  config.SPI_Direction = SPI_DIRECTION_2LINES_FULL_DUPLEX;
 8000df2:	2300      	movs	r3, #0
 8000df4:	807b      	strh	r3, [r7, #2]
	  config.SPI_DataSize = SPI_DATA_SIZE_8BIT;
 8000df6:	2300      	movs	r3, #0
 8000df8:	80bb      	strh	r3, [r7, #4]
	  config.SPI_BitOrder = SPI_FIRST_BIT_LSB;
 8000dfa:	2380      	movs	r3, #128	; 0x80
 8000dfc:	80fb      	strh	r3, [r7, #6]
	  config.SPI_ClockPolarity = SPI_IDLE_HIGH;
 8000dfe:	2302      	movs	r3, #2
 8000e00:	813b      	strh	r3, [r7, #8]
	  config.SPI_ClockPhase = SPI_SAMPLE_SECOND_EDGE;
 8000e02:	2301      	movs	r3, #1
 8000e04:	817b      	strh	r3, [r7, #10]
	  config.SPI_NSS_Managment = SPI_NSS_SW_SET;
 8000e06:	f44f 7340 	mov.w	r3, #768	; 0x300
 8000e0a:	81bb      	strh	r3, [r7, #12]
	  config.SPI_BR_Prescaler = SPI_BAUD_RATE_PRESCALER_8;
 8000e0c:	2310      	movs	r3, #16
 8000e0e:	81fb      	strh	r3, [r7, #14]

	  MCAL_SPI_Init(ENTRANCE_GATE_ECU_SPI, &config);
 8000e10:	463b      	mov	r3, r7
 8000e12:	4619      	mov	r1, r3
 8000e14:	480e      	ldr	r0, [pc, #56]	; (8000e50 <SPI_Init+0x68>)
 8000e16:	f001 f9a7 	bl	8002168 <MCAL_SPI_Init>
    
    MCAL_SPI_Interrupt_EN(ENTRANCE_GATE_ECU_SPI, SPI_IRQ_TXEIE, ENTRANCE_GATE_ECU_SPI_TXEmpty_ISR_Callback);
 8000e1a:	4a0e      	ldr	r2, [pc, #56]	; (8000e54 <SPI_Init+0x6c>)
 8000e1c:	2180      	movs	r1, #128	; 0x80
 8000e1e:	480c      	ldr	r0, [pc, #48]	; (8000e50 <SPI_Init+0x68>)
 8000e20:	f001 fab4 	bl	800238c <MCAL_SPI_Interrupt_EN>

    /*Give the SPI interrupt higher priority as it's more important*/
    MCAL_NVIC_SetPriority(NVIC_SPI1_IVT_INDEX, NVIC_PRIORITY_5);
 8000e24:	2105      	movs	r1, #5
 8000e26:	2023      	movs	r0, #35	; 0x23
 8000e28:	f001 f850 	bl	8001ecc <MCAL_NVIC_SetPriority>

    /*Exit Gate SPI*/
	  MCAL_SPI_Init(EXIT_GATE_ECU_SPI, &config);
 8000e2c:	463b      	mov	r3, r7
 8000e2e:	4619      	mov	r1, r3
 8000e30:	4809      	ldr	r0, [pc, #36]	; (8000e58 <SPI_Init+0x70>)
 8000e32:	f001 f999 	bl	8002168 <MCAL_SPI_Init>
    
    MCAL_SPI_Interrupt_EN(EXIT_GATE_ECU_SPI, SPI_IRQ_TXEIE, EXIT_GATE_ECU_SPI_TXEmpty_ISR_Callback);
 8000e36:	4a09      	ldr	r2, [pc, #36]	; (8000e5c <SPI_Init+0x74>)
 8000e38:	2180      	movs	r1, #128	; 0x80
 8000e3a:	4807      	ldr	r0, [pc, #28]	; (8000e58 <SPI_Init+0x70>)
 8000e3c:	f001 faa6 	bl	800238c <MCAL_SPI_Interrupt_EN>

    /*Give the SPI interrupt higher priority as it's more important*/
    MCAL_NVIC_SetPriority(NVIC_SPI1_IVT_INDEX, NVIC_PRIORITY_6);
 8000e40:	2106      	movs	r1, #6
 8000e42:	2023      	movs	r0, #35	; 0x23
 8000e44:	f001 f842 	bl	8001ecc <MCAL_NVIC_SetPriority>
}
 8000e48:	bf00      	nop
 8000e4a:	3710      	adds	r7, #16
 8000e4c:	46bd      	mov	sp, r7
 8000e4e:	bd80      	pop	{r7, pc}
 8000e50:	40013000 	.word	0x40013000
 8000e54:	08000c19 	.word	0x08000c19
 8000e58:	40003800 	.word	0x40003800
 8000e5c:	08000cdd 	.word	0x08000cdd

08000e60 <EXTI_Init>:

void EXTI_Init(void)
{
 8000e60:	b580      	push	{r7, lr}
 8000e62:	b086      	sub	sp, #24
 8000e64:	af00      	add	r7, sp, #0
    EXTI_config_t config;

    /*Entrance gate ECU EXTI*/
    config.PinConfig = EXTI_GPIOA_PIN4;
 8000e66:	4a11      	ldr	r2, [pc, #68]	; (8000eac <EXTI_Init+0x4c>)
 8000e68:	1d3b      	adds	r3, r7, #4
 8000e6a:	ca07      	ldmia	r2, {r0, r1, r2}
 8000e6c:	e883 0007 	stmia.w	r3, {r0, r1, r2}
    config.EXTI_Trigger_Mode = EXTI_TRIGGER_BOTH_EDGES;
 8000e70:	2302      	movs	r3, #2
 8000e72:	743b      	strb	r3, [r7, #16]
    config.EXTI_En = EXTI_ENABLE;
 8000e74:	2301      	movs	r3, #1
 8000e76:	747b      	strb	r3, [r7, #17]
    config.EXTI_Priority = NVIC_PRIORITY_10;
 8000e78:	230a      	movs	r3, #10
 8000e7a:	74bb      	strb	r3, [r7, #18]
    config.P_callback_func = EXTI_Line4_ISR_Callback;
 8000e7c:	4b0c      	ldr	r3, [pc, #48]	; (8000eb0 <EXTI_Init+0x50>)
 8000e7e:	617b      	str	r3, [r7, #20]

    MCAL_EXTI_Enable(&config);
 8000e80:	1d3b      	adds	r3, r7, #4
 8000e82:	4618      	mov	r0, r3
 8000e84:	f000 fd9c 	bl	80019c0 <MCAL_EXTI_Enable>

    /*Exit gate ECU EXTI*/
    config.PinConfig = EXTI_GPIOB_PIN12;
 8000e88:	4a0a      	ldr	r2, [pc, #40]	; (8000eb4 <EXTI_Init+0x54>)
 8000e8a:	1d3b      	adds	r3, r7, #4
 8000e8c:	ca07      	ldmia	r2, {r0, r1, r2}
 8000e8e:	e883 0007 	stmia.w	r3, {r0, r1, r2}
    config.EXTI_Priority = NVIC_PRIORITY_11;
 8000e92:	230b      	movs	r3, #11
 8000e94:	74bb      	strb	r3, [r7, #18]
    config.P_callback_func = EXTI_Line12_ISR_Callback;
 8000e96:	4b08      	ldr	r3, [pc, #32]	; (8000eb8 <EXTI_Init+0x58>)
 8000e98:	617b      	str	r3, [r7, #20]

    MCAL_EXTI_Enable(&config);
 8000e9a:	1d3b      	adds	r3, r7, #4
 8000e9c:	4618      	mov	r0, r3
 8000e9e:	f000 fd8f 	bl	80019c0 <MCAL_EXTI_Enable>
}
 8000ea2:	bf00      	nop
 8000ea4:	3718      	adds	r7, #24
 8000ea6:	46bd      	mov	sp, r7
 8000ea8:	bd80      	pop	{r7, pc}
 8000eaa:	bf00      	nop
 8000eac:	0800284c 	.word	0x0800284c
 8000eb0:	08000da1 	.word	0x08000da1
 8000eb4:	08002858 	.word	0x08002858
 8000eb8:	08000dc5 	.word	0x08000dc5

08000ebc <FIFOBuff_Init>:


void FIFOBuff_Init(void)
{
 8000ebc:	b580      	push	{r7, lr}
 8000ebe:	af00      	add	r7, sp, #0
    FIFO_init(&Glob_sQueueBuffer, Glob_szGatesRequests, MAX_NUMBER_OF_REQUESTS);
 8000ec0:	2202      	movs	r2, #2
 8000ec2:	4903      	ldr	r1, [pc, #12]	; (8000ed0 <FIFOBuff_Init+0x14>)
 8000ec4:	4803      	ldr	r0, [pc, #12]	; (8000ed4 <FIFOBuff_Init+0x18>)
 8000ec6:	f000 fc9d 	bl	8001804 <FIFO_init>
}
 8000eca:	bf00      	nop
 8000ecc:	bd80      	pop	{r7, pc}
 8000ece:	bf00      	nop
 8000ed0:	20000080 	.word	0x20000080
 8000ed4:	2000006c 	.word	0x2000006c

08000ed8 <st_GatesComm_Init>:
/**
 * @brief This state initializes the main components needed for the communication module.
 * 
 */
void st_GatesComm_Init(void)
{
 8000ed8:	b580      	push	{r7, lr}
 8000eda:	af00      	add	r7, sp, #0
    /*Initialize the SPI module to communicate with the gates ECUs*/
    SPI_Init();
 8000edc:	f7ff ff84 	bl	8000de8 <SPI_Init>

    /*Initialize the EXTI module to communicate with the gates ECUs*/
    EXTI_Init();
 8000ee0:	f7ff ffbe 	bl	8000e60 <EXTI_Init>

    /*Initialize the queue to store the gates requests*/
    FIFOBuff_Init();
 8000ee4:	f7ff ffea 	bl	8000ebc <FIFOBuff_Init>

    HAL_SevenSeg_Init();
 8000ee8:	f000 fbfe 	bl	80016e8 <HAL_SevenSeg_Init>

    HAL_SevenSeg_DisplayNumber(NUMBER_OF_GARAGE_SLOTS);
 8000eec:	2003      	movs	r0, #3
 8000eee:	f000 fc23 	bl	8001738 <HAL_SevenSeg_DisplayNumber>
    /*Set the initial state*/
    fptr_GateCommState = st_GatesComm_CheckPendingRequests;
 8000ef2:	4b02      	ldr	r3, [pc, #8]	; (8000efc <st_GatesComm_Init+0x24>)
 8000ef4:	4a02      	ldr	r2, [pc, #8]	; (8000f00 <st_GatesComm_Init+0x28>)
 8000ef6:	601a      	str	r2, [r3, #0]
}
 8000ef8:	bf00      	nop
 8000efa:	bd80      	pop	{r7, pc}
 8000efc:	200000e4 	.word	0x200000e4
 8000f00:	08000f05 	.word	0x08000f05

08000f04 <st_GatesComm_CheckPendingRequests>:
/**
 * @brief This state checks if there are any pending requests that needs processing.
 * 
 */
void st_GatesComm_CheckPendingRequests(void)
{
 8000f04:	b580      	push	{r7, lr}
 8000f06:	b082      	sub	sp, #8
 8000f08:	af00      	add	r7, sp, #0
    sGateRequestInfo_t request;

    /*If there are any requests in the queue start processing them*/
    if(Glob_sQueueBuffer.size > 0)
 8000f0a:	4b0c      	ldr	r3, [pc, #48]	; (8000f3c <st_GatesComm_CheckPendingRequests+0x38>)
 8000f0c:	691b      	ldr	r3, [r3, #16]
 8000f0e:	2b00      	cmp	r3, #0
 8000f10:	d00f      	beq.n	8000f32 <st_GatesComm_CheckPendingRequests+0x2e>
    {
        /*Remove the request from the queue*/
        FIFO_dequeue(&Glob_sQueueBuffer, &request);
 8000f12:	463b      	mov	r3, r7
 8000f14:	4619      	mov	r1, r3
 8000f16:	4809      	ldr	r0, [pc, #36]	; (8000f3c <st_GatesComm_CheckPendingRequests+0x38>)
 8000f18:	f000 fcde 	bl	80018d8 <FIFO_dequeue>

        /*Save the gate address*/
        Glob_u8ServedRequestGateAddress = request.GateAddress;
 8000f1c:	783a      	ldrb	r2, [r7, #0]
 8000f1e:	4b08      	ldr	r3, [pc, #32]	; (8000f40 <st_GatesComm_CheckPendingRequests+0x3c>)
 8000f20:	701a      	strb	r2, [r3, #0]

        AI_GC_SendIDForAuthentication(request.szDriverID);
 8000f22:	463b      	mov	r3, r7
 8000f24:	3301      	adds	r3, #1
 8000f26:	4618      	mov	r0, r3
 8000f28:	f7ff fe68 	bl	8000bfc <AI_GC_SendIDForAuthentication>

        fptr_GateCommState = st_Admin_AuthenticateID;
 8000f2c:	4b05      	ldr	r3, [pc, #20]	; (8000f44 <st_GatesComm_CheckPendingRequests+0x40>)
 8000f2e:	4a06      	ldr	r2, [pc, #24]	; (8000f48 <st_GatesComm_CheckPendingRequests+0x44>)
 8000f30:	601a      	str	r2, [r3, #0]
    }
}
 8000f32:	bf00      	nop
 8000f34:	3708      	adds	r7, #8
 8000f36:	46bd      	mov	sp, r7
 8000f38:	bd80      	pop	{r7, pc}
 8000f3a:	bf00      	nop
 8000f3c:	2000006c 	.word	0x2000006c
 8000f40:	20000099 	.word	0x20000099
 8000f44:	200000e4 	.word	0x200000e4
 8000f48:	08000b81 	.word	0x08000b81

08000f4c <st_GatesComm_SendIDApprovedSignal>:
/**
 * @brief This state sends the request approval signal to the gate ECUs and to the 7-segment display to be updated.
 * 
 */
void st_GatesComm_SendIDApprovedSignal(void)
{
 8000f4c:	b580      	push	{r7, lr}
 8000f4e:	b084      	sub	sp, #16
 8000f50:	af00      	add	r7, sp, #0
    uint16 LOC_u16TxBuffer = Glob_u8ServedRequestGateAddress;
 8000f52:	4b2d      	ldr	r3, [pc, #180]	; (8001008 <st_GatesComm_SendIDApprovedSignal+0xbc>)
 8000f54:	781b      	ldrb	r3, [r3, #0]
 8000f56:	b29b      	uxth	r3, r3
 8000f58:	807b      	strh	r3, [r7, #2]
    uint8 LOC_u8FailedTransmissionCount = 0;
 8000f5a:	2300      	movs	r3, #0
 8000f5c:	73fb      	strb	r3, [r7, #15]
    volatile SPI_Typedef* SPIx;
    fptr_Callback callback;

    /*Determine which SPI instance to used based on the gate being served*/
    if(Glob_u8ServedRequestGateAddress == ENTRANCE_GATE_ECU_ADDRESS)
 8000f5e:	4b2a      	ldr	r3, [pc, #168]	; (8001008 <st_GatesComm_SendIDApprovedSignal+0xbc>)
 8000f60:	781b      	ldrb	r3, [r3, #0]
 8000f62:	2be7      	cmp	r3, #231	; 0xe7
 8000f64:	d110      	bne.n	8000f88 <st_GatesComm_SendIDApprovedSignal+0x3c>
    {
        SPIx = ENTRANCE_GATE_ECU_SPI;
 8000f66:	4b29      	ldr	r3, [pc, #164]	; (800100c <st_GatesComm_SendIDApprovedSignal+0xc0>)
 8000f68:	60bb      	str	r3, [r7, #8]
        callback = ENTRANCE_GATE_ECU_SPI_TXEmpty_ISR_Callback;
 8000f6a:	4b29      	ldr	r3, [pc, #164]	; (8001010 <st_GatesComm_SendIDApprovedSignal+0xc4>)
 8000f6c:	607b      	str	r3, [r7, #4]

        /* Decrease the number of slots available on the 7-segment display
           note: if the number of available slots is 0 (garage full) the 
           gate will open but the number of available slots won't change*/
        if(Glob_u8AvailableSlots > 0)
 8000f6e:	4b29      	ldr	r3, [pc, #164]	; (8001014 <st_GatesComm_SendIDApprovedSignal+0xc8>)
 8000f70:	781b      	ldrb	r3, [r3, #0]
 8000f72:	2b00      	cmp	r3, #0
 8000f74:	d018      	beq.n	8000fa8 <st_GatesComm_SendIDApprovedSignal+0x5c>
        {
          HAL_SevenSeg_Decrement();
 8000f76:	f000 fc2f 	bl	80017d8 <HAL_SevenSeg_Decrement>
          Glob_u8AvailableSlots--;
 8000f7a:	4b26      	ldr	r3, [pc, #152]	; (8001014 <st_GatesComm_SendIDApprovedSignal+0xc8>)
 8000f7c:	781b      	ldrb	r3, [r3, #0]
 8000f7e:	3b01      	subs	r3, #1
 8000f80:	b2da      	uxtb	r2, r3
 8000f82:	4b24      	ldr	r3, [pc, #144]	; (8001014 <st_GatesComm_SendIDApprovedSignal+0xc8>)
 8000f84:	701a      	strb	r2, [r3, #0]
 8000f86:	e00f      	b.n	8000fa8 <st_GatesComm_SendIDApprovedSignal+0x5c>
        }else{

        }
    }else{
        SPIx = EXIT_GATE_ECU_SPI;
 8000f88:	4b23      	ldr	r3, [pc, #140]	; (8001018 <st_GatesComm_SendIDApprovedSignal+0xcc>)
 8000f8a:	60bb      	str	r3, [r7, #8]

        callback = EXIT_GATE_ECU_SPI_TXEmpty_ISR_Callback;
 8000f8c:	4b23      	ldr	r3, [pc, #140]	; (800101c <st_GatesComm_SendIDApprovedSignal+0xd0>)
 8000f8e:	607b      	str	r3, [r7, #4]

        /*Increase the number of slots available on the 7-segment display
          note: if the number of available slots is 3 (garage empty) the 
          gate will open but the number of available slots won't change*/
        if(Glob_u8AvailableSlots < NUMBER_OF_GARAGE_SLOTS)
 8000f90:	4b20      	ldr	r3, [pc, #128]	; (8001014 <st_GatesComm_SendIDApprovedSignal+0xc8>)
 8000f92:	781b      	ldrb	r3, [r3, #0]
 8000f94:	2b02      	cmp	r3, #2
 8000f96:	d807      	bhi.n	8000fa8 <st_GatesComm_SendIDApprovedSignal+0x5c>
        {
          HAL_SevenSeg_Increment();
 8000f98:	f000 fc08 	bl	80017ac <HAL_SevenSeg_Increment>
          Glob_u8AvailableSlots++;
 8000f9c:	4b1d      	ldr	r3, [pc, #116]	; (8001014 <st_GatesComm_SendIDApprovedSignal+0xc8>)
 8000f9e:	781b      	ldrb	r3, [r3, #0]
 8000fa0:	3301      	adds	r3, #1
 8000fa2:	b2da      	uxtb	r2, r3
 8000fa4:	4b1b      	ldr	r3, [pc, #108]	; (8001014 <st_GatesComm_SendIDApprovedSignal+0xc8>)
 8000fa6:	701a      	strb	r2, [r3, #0]

        }
    }
        
    /*Disable the interrupts to send the signal using polling*/
    MCAL_SPI_Interrupt_Disable(SPIx, SPI_IRQ_TXEIE);
 8000fa8:	2180      	movs	r1, #128	; 0x80
 8000faa:	68b8      	ldr	r0, [r7, #8]
 8000fac:	f001 fa20 	bl	80023f0 <MCAL_SPI_Interrupt_Disable>

    do
    {
        LOC_u16TxBuffer = Glob_u8ServedRequestGateAddress;
 8000fb0:	4b15      	ldr	r3, [pc, #84]	; (8001008 <st_GatesComm_SendIDApprovedSignal+0xbc>)
 8000fb2:	781b      	ldrb	r3, [r3, #0]
 8000fb4:	b29b      	uxth	r3, r3
 8000fb6:	807b      	strh	r3, [r7, #2]

        /*Send the address of the gate being served to act as the start of the frame*/
        MCAL_SPI_ExchangeData(SPIx, (uint16 *)&LOC_u16TxBuffer);
 8000fb8:	1cbb      	adds	r3, r7, #2
 8000fba:	4619      	mov	r1, r3
 8000fbc:	68b8      	ldr	r0, [r7, #8]
 8000fbe:	f001 f9c3 	bl	8002348 <MCAL_SPI_ExchangeData>

        /*Put a limit on the number of failed tries to avoid getting stuck in this loop*/
        LOC_u8FailedTransmissionCount++;
 8000fc2:	7bfb      	ldrb	r3, [r7, #15]
 8000fc4:	3301      	adds	r3, #1
 8000fc6:	73fb      	strb	r3, [r7, #15]

    } while ((LOC_u16TxBuffer != Glob_u8ServedRequestGateAddress) && 
 8000fc8:	4b0f      	ldr	r3, [pc, #60]	; (8001008 <st_GatesComm_SendIDApprovedSignal+0xbc>)
 8000fca:	781b      	ldrb	r3, [r3, #0]
 8000fcc:	b29a      	uxth	r2, r3
 8000fce:	887b      	ldrh	r3, [r7, #2]
              LOC_u8FailedTransmissionCount < 10);
 8000fd0:	429a      	cmp	r2, r3
 8000fd2:	d002      	beq.n	8000fda <st_GatesComm_SendIDApprovedSignal+0x8e>
    } while ((LOC_u16TxBuffer != Glob_u8ServedRequestGateAddress) && 
 8000fd4:	7bfb      	ldrb	r3, [r7, #15]
 8000fd6:	2b09      	cmp	r3, #9
 8000fd8:	d9ea      	bls.n	8000fb0 <st_GatesComm_SendIDApprovedSignal+0x64>
    
    /*Check if we failed to get an aknowledge from the slave then abort*/
    if(LOC_u8FailedTransmissionCount < 10)
 8000fda:	7bfb      	ldrb	r3, [r7, #15]
 8000fdc:	2b09      	cmp	r3, #9
 8000fde:	d807      	bhi.n	8000ff0 <st_GatesComm_SendIDApprovedSignal+0xa4>
    {
        /*Send the successful authentication code*/
        LOC_u16TxBuffer = AUTHENTICATION_RESULT_PASS;
 8000fe0:	23ff      	movs	r3, #255	; 0xff
 8000fe2:	807b      	strh	r3, [r7, #2]
        MCAL_SPI_SendData(SPIx, &LOC_u16TxBuffer, PollingEnable);
 8000fe4:	1cbb      	adds	r3, r7, #2
 8000fe6:	2200      	movs	r2, #0
 8000fe8:	4619      	mov	r1, r3
 8000fea:	68b8      	ldr	r0, [r7, #8]
 8000fec:	f001 f932 	bl	8002254 <MCAL_SPI_SendData>
    }else{

    }

    /*Enable the interrupts again*/
    MCAL_SPI_Interrupt_EN(SPIx, SPI_IRQ_TXEIE, callback);
 8000ff0:	687a      	ldr	r2, [r7, #4]
 8000ff2:	2180      	movs	r1, #128	; 0x80
 8000ff4:	68b8      	ldr	r0, [r7, #8]
 8000ff6:	f001 f9c9 	bl	800238c <MCAL_SPI_Interrupt_EN>

    fptr_GateCommState = st_GatesComm_CheckPendingRequests;
 8000ffa:	4b09      	ldr	r3, [pc, #36]	; (8001020 <st_GatesComm_SendIDApprovedSignal+0xd4>)
 8000ffc:	4a09      	ldr	r2, [pc, #36]	; (8001024 <st_GatesComm_SendIDApprovedSignal+0xd8>)
 8000ffe:	601a      	str	r2, [r3, #0]
}
 8001000:	bf00      	nop
 8001002:	3710      	adds	r7, #16
 8001004:	46bd      	mov	sp, r7
 8001006:	bd80      	pop	{r7, pc}
 8001008:	20000099 	.word	0x20000099
 800100c:	40013000 	.word	0x40013000
 8001010:	08000c19 	.word	0x08000c19
 8001014:	2000002d 	.word	0x2000002d
 8001018:	40003800 	.word	0x40003800
 800101c:	08000cdd 	.word	0x08000cdd
 8001020:	200000e4 	.word	0x200000e4
 8001024:	08000f05 	.word	0x08000f05

08001028 <st_GatesComm_SendIDDisapprovedSignal>:
/**
 * @brief This state sends the request disapproval to the gate ECU.
 * 
 */
void st_GatesComm_SendIDDisapprovedSignal(void)
{
 8001028:	b580      	push	{r7, lr}
 800102a:	b084      	sub	sp, #16
 800102c:	af00      	add	r7, sp, #0
    uint16 LOC_u16TxBuffer = Glob_u8ServedRequestGateAddress;
 800102e:	4b21      	ldr	r3, [pc, #132]	; (80010b4 <st_GatesComm_SendIDDisapprovedSignal+0x8c>)
 8001030:	781b      	ldrb	r3, [r3, #0]
 8001032:	b29b      	uxth	r3, r3
 8001034:	807b      	strh	r3, [r7, #2]
    uint8 LOC_u8FailedTransmissionCount = 0;
 8001036:	2300      	movs	r3, #0
 8001038:	73fb      	strb	r3, [r7, #15]
    volatile SPI_Typedef* SPIx;
    fptr_Callback callback;

    /*Determine which SPI instance to used based on the gate being served*/
    if(Glob_u8ServedRequestGateAddress == ENTRANCE_GATE_ECU_ADDRESS)
 800103a:	4b1e      	ldr	r3, [pc, #120]	; (80010b4 <st_GatesComm_SendIDDisapprovedSignal+0x8c>)
 800103c:	781b      	ldrb	r3, [r3, #0]
 800103e:	2be7      	cmp	r3, #231	; 0xe7
 8001040:	d104      	bne.n	800104c <st_GatesComm_SendIDDisapprovedSignal+0x24>
    {
        SPIx = ENTRANCE_GATE_ECU_SPI;
 8001042:	4b1d      	ldr	r3, [pc, #116]	; (80010b8 <st_GatesComm_SendIDDisapprovedSignal+0x90>)
 8001044:	60bb      	str	r3, [r7, #8]
        callback = ENTRANCE_GATE_ECU_SPI_TXEmpty_ISR_Callback;
 8001046:	4b1d      	ldr	r3, [pc, #116]	; (80010bc <st_GatesComm_SendIDDisapprovedSignal+0x94>)
 8001048:	607b      	str	r3, [r7, #4]
 800104a:	e003      	b.n	8001054 <st_GatesComm_SendIDDisapprovedSignal+0x2c>

    }else{

        SPIx = EXIT_GATE_ECU_SPI;
 800104c:	4b1c      	ldr	r3, [pc, #112]	; (80010c0 <st_GatesComm_SendIDDisapprovedSignal+0x98>)
 800104e:	60bb      	str	r3, [r7, #8]
        callback = EXIT_GATE_ECU_SPI_TXEmpty_ISR_Callback;
 8001050:	4b1c      	ldr	r3, [pc, #112]	; (80010c4 <st_GatesComm_SendIDDisapprovedSignal+0x9c>)
 8001052:	607b      	str	r3, [r7, #4]
    }
        

    /*Disable the interrupts to send the signal using polling*/
    MCAL_SPI_Interrupt_Disable(SPIx, SPI_IRQ_TXEIE);
 8001054:	2180      	movs	r1, #128	; 0x80
 8001056:	68b8      	ldr	r0, [r7, #8]
 8001058:	f001 f9ca 	bl	80023f0 <MCAL_SPI_Interrupt_Disable>

    do
    {
        LOC_u16TxBuffer = Glob_u8ServedRequestGateAddress;
 800105c:	4b15      	ldr	r3, [pc, #84]	; (80010b4 <st_GatesComm_SendIDDisapprovedSignal+0x8c>)
 800105e:	781b      	ldrb	r3, [r3, #0]
 8001060:	b29b      	uxth	r3, r3
 8001062:	807b      	strh	r3, [r7, #2]

        /*Send the address of the gate being served to act as the start of the frame*/
        MCAL_SPI_ExchangeData(SPIx, (uint16 *)&LOC_u16TxBuffer);
 8001064:	1cbb      	adds	r3, r7, #2
 8001066:	4619      	mov	r1, r3
 8001068:	68b8      	ldr	r0, [r7, #8]
 800106a:	f001 f96d 	bl	8002348 <MCAL_SPI_ExchangeData>

        /*Put a limit on the number of failed tries to avoid getting stuck in this loop*/
        LOC_u8FailedTransmissionCount++;
 800106e:	7bfb      	ldrb	r3, [r7, #15]
 8001070:	3301      	adds	r3, #1
 8001072:	73fb      	strb	r3, [r7, #15]

    } while ((LOC_u16TxBuffer != Glob_u8ServedRequestGateAddress) &&
 8001074:	4b0f      	ldr	r3, [pc, #60]	; (80010b4 <st_GatesComm_SendIDDisapprovedSignal+0x8c>)
 8001076:	781b      	ldrb	r3, [r3, #0]
 8001078:	b29a      	uxth	r2, r3
 800107a:	887b      	ldrh	r3, [r7, #2]
              LOC_u8FailedTransmissionCount < 10);
 800107c:	429a      	cmp	r2, r3
 800107e:	d002      	beq.n	8001086 <st_GatesComm_SendIDDisapprovedSignal+0x5e>
    } while ((LOC_u16TxBuffer != Glob_u8ServedRequestGateAddress) &&
 8001080:	7bfb      	ldrb	r3, [r7, #15]
 8001082:	2b09      	cmp	r3, #9
 8001084:	d9ea      	bls.n	800105c <st_GatesComm_SendIDDisapprovedSignal+0x34>
    
    if(LOC_u8FailedTransmissionCount < 10)
 8001086:	7bfb      	ldrb	r3, [r7, #15]
 8001088:	2b09      	cmp	r3, #9
 800108a:	d807      	bhi.n	800109c <st_GatesComm_SendIDDisapprovedSignal+0x74>
    {
        /*Send the failed authentication code*/
        LOC_u16TxBuffer = AUTHENTICATION_RESULT_FAIL;
 800108c:	2300      	movs	r3, #0
 800108e:	807b      	strh	r3, [r7, #2]
        MCAL_SPI_SendData(SPIx, &LOC_u16TxBuffer, PollingEnable);
 8001090:	1cbb      	adds	r3, r7, #2
 8001092:	2200      	movs	r2, #0
 8001094:	4619      	mov	r1, r3
 8001096:	68b8      	ldr	r0, [r7, #8]
 8001098:	f001 f8dc 	bl	8002254 <MCAL_SPI_SendData>
    }else{

    }

    /*Enable the interrupts again*/
    MCAL_SPI_Interrupt_EN(SPIx, SPI_IRQ_TXEIE, callback);
 800109c:	687a      	ldr	r2, [r7, #4]
 800109e:	2180      	movs	r1, #128	; 0x80
 80010a0:	68b8      	ldr	r0, [r7, #8]
 80010a2:	f001 f973 	bl	800238c <MCAL_SPI_Interrupt_EN>

    fptr_GateCommState = st_GatesComm_CheckPendingRequests;
 80010a6:	4b08      	ldr	r3, [pc, #32]	; (80010c8 <st_GatesComm_SendIDDisapprovedSignal+0xa0>)
 80010a8:	4a08      	ldr	r2, [pc, #32]	; (80010cc <st_GatesComm_SendIDDisapprovedSignal+0xa4>)
 80010aa:	601a      	str	r2, [r3, #0]
}
 80010ac:	bf00      	nop
 80010ae:	3710      	adds	r7, #16
 80010b0:	46bd      	mov	sp, r7
 80010b2:	bd80      	pop	{r7, pc}
 80010b4:	20000099 	.word	0x20000099
 80010b8:	40013000 	.word	0x40013000
 80010bc:	08000c19 	.word	0x08000c19
 80010c0:	40003800 	.word	0x40003800
 80010c4:	08000cdd 	.word	0x08000cdd
 80010c8:	200000e4 	.word	0x200000e4
 80010cc:	08000f05 	.word	0x08000f05

080010d0 <AI_GC_IDApproved>:
* @brief		   :  Function to inform that the authentication process has been approved and the ID is valid.
* @note			:  none
======================================================================================================================
*/
void AI_GC_IDApproved(void)
{
 80010d0:	b480      	push	{r7}
 80010d2:	af00      	add	r7, sp, #0
    fptr_GateCommState = st_GatesComm_SendIDApprovedSignal;
 80010d4:	4b03      	ldr	r3, [pc, #12]	; (80010e4 <AI_GC_IDApproved+0x14>)
 80010d6:	4a04      	ldr	r2, [pc, #16]	; (80010e8 <AI_GC_IDApproved+0x18>)
 80010d8:	601a      	str	r2, [r3, #0]
}
 80010da:	bf00      	nop
 80010dc:	46bd      	mov	sp, r7
 80010de:	bc80      	pop	{r7}
 80010e0:	4770      	bx	lr
 80010e2:	bf00      	nop
 80010e4:	200000e4 	.word	0x200000e4
 80010e8:	08000f4d 	.word	0x08000f4d

080010ec <AI_GC_IDDisapproved>:
* @brief		   :  Function to inform that the authentication process has been approved and the ID is valid.
* @note			:  none
======================================================================================================================
*/
void AI_GC_IDDisapproved(void)
{
 80010ec:	b480      	push	{r7}
 80010ee:	af00      	add	r7, sp, #0
    fptr_GateCommState = st_GatesComm_SendIDDisapprovedSignal;
 80010f0:	4b03      	ldr	r3, [pc, #12]	; (8001100 <AI_GC_IDDisapproved+0x14>)
 80010f2:	4a04      	ldr	r2, [pc, #16]	; (8001104 <AI_GC_IDDisapproved+0x18>)
 80010f4:	601a      	str	r2, [r3, #0]
}
 80010f6:	bf00      	nop
 80010f8:	46bd      	mov	sp, r7
 80010fa:	bc80      	pop	{r7}
 80010fc:	4770      	bx	lr
 80010fe:	bf00      	nop
 8001100:	200000e4 	.word	0x200000e4
 8001104:	08001029 	.word	0x08001029

08001108 <Keypad_Init>:
 * @return_value:   none.
 * Note			:   none.
============================================================================================================
 */
void Keypad_Init(void)
{
 8001108:	b580      	push	{r7, lr}
 800110a:	b082      	sub	sp, #8
 800110c:	af00      	add	r7, sp, #0
	GPIO_Pin_Config_t config;

	/*Keypad row pins as input with pull-up resistance*/
	config.pinNumber = KEYPAD_ROW0;
 800110e:	2304      	movs	r3, #4
 8001110:	80bb      	strh	r3, [r7, #4]
	config.pinMode = GPIO_MODE_INPUT_PU;
 8001112:	2308      	movs	r3, #8
 8001114:	80fb      	strh	r3, [r7, #6]
	MCAL_GPIO_Init(KEYPAD_DATA_PORT, &config);
 8001116:	1d3b      	adds	r3, r7, #4
 8001118:	4619      	mov	r1, r3
 800111a:	481e      	ldr	r0, [pc, #120]	; (8001194 <Keypad_Init+0x8c>)
 800111c:	f000 fe00 	bl	8001d20 <MCAL_GPIO_Init>

	config.pinNumber = KEYPAD_ROW1;
 8001120:	2305      	movs	r3, #5
 8001122:	80bb      	strh	r3, [r7, #4]
	config.pinMode = GPIO_MODE_INPUT_PU;
 8001124:	2308      	movs	r3, #8
 8001126:	80fb      	strh	r3, [r7, #6]
	MCAL_GPIO_Init(KEYPAD_DATA_PORT, &config);
 8001128:	1d3b      	adds	r3, r7, #4
 800112a:	4619      	mov	r1, r3
 800112c:	4819      	ldr	r0, [pc, #100]	; (8001194 <Keypad_Init+0x8c>)
 800112e:	f000 fdf7 	bl	8001d20 <MCAL_GPIO_Init>

	config.pinNumber = KEYPAD_ROW2;
 8001132:	2306      	movs	r3, #6
 8001134:	80bb      	strh	r3, [r7, #4]
	config.pinMode = GPIO_MODE_INPUT_PU;
 8001136:	2308      	movs	r3, #8
 8001138:	80fb      	strh	r3, [r7, #6]
	MCAL_GPIO_Init(KEYPAD_DATA_PORT, &config);
 800113a:	1d3b      	adds	r3, r7, #4
 800113c:	4619      	mov	r1, r3
 800113e:	4815      	ldr	r0, [pc, #84]	; (8001194 <Keypad_Init+0x8c>)
 8001140:	f000 fdee 	bl	8001d20 <MCAL_GPIO_Init>

	config.pinNumber = KEYPAD_ROW3;
 8001144:	2307      	movs	r3, #7
 8001146:	80bb      	strh	r3, [r7, #4]
	config.pinMode = GPIO_MODE_INPUT_PU;
 8001148:	2308      	movs	r3, #8
 800114a:	80fb      	strh	r3, [r7, #6]
	MCAL_GPIO_Init(KEYPAD_DATA_PORT, &config);
 800114c:	1d3b      	adds	r3, r7, #4
 800114e:	4619      	mov	r1, r3
 8001150:	4810      	ldr	r0, [pc, #64]	; (8001194 <Keypad_Init+0x8c>)
 8001152:	f000 fde5 	bl	8001d20 <MCAL_GPIO_Init>

	/*Keypad column pins as output*/
	config.pinNumber = KEYPAD_COL0;
 8001156:	230b      	movs	r3, #11
 8001158:	80bb      	strh	r3, [r7, #4]
	config.pinMode = GPIO_MODE_GP_OUTPUT_PP_10MHZ;
 800115a:	2301      	movs	r3, #1
 800115c:	80fb      	strh	r3, [r7, #6]
	MCAL_GPIO_Init(KEYPAD_DATA_PORT, &config);
 800115e:	1d3b      	adds	r3, r7, #4
 8001160:	4619      	mov	r1, r3
 8001162:	480c      	ldr	r0, [pc, #48]	; (8001194 <Keypad_Init+0x8c>)
 8001164:	f000 fddc 	bl	8001d20 <MCAL_GPIO_Init>

	config.pinNumber = KEYPAD_COL1;
 8001168:	2309      	movs	r3, #9
 800116a:	80bb      	strh	r3, [r7, #4]
	config.pinMode = GPIO_MODE_GP_OUTPUT_PP_10MHZ;
 800116c:	2301      	movs	r3, #1
 800116e:	80fb      	strh	r3, [r7, #6]
	MCAL_GPIO_Init(KEYPAD_DATA_PORT, &config);
 8001170:	1d3b      	adds	r3, r7, #4
 8001172:	4619      	mov	r1, r3
 8001174:	4807      	ldr	r0, [pc, #28]	; (8001194 <Keypad_Init+0x8c>)
 8001176:	f000 fdd3 	bl	8001d20 <MCAL_GPIO_Init>

	config.pinNumber = KEYPAD_COL2;
 800117a:	2308      	movs	r3, #8
 800117c:	80bb      	strh	r3, [r7, #4]
	config.pinMode = GPIO_MODE_GP_OUTPUT_PP_10MHZ;
 800117e:	2301      	movs	r3, #1
 8001180:	80fb      	strh	r3, [r7, #6]
	MCAL_GPIO_Init(KEYPAD_DATA_PORT, &config);
 8001182:	1d3b      	adds	r3, r7, #4
 8001184:	4619      	mov	r1, r3
 8001186:	4803      	ldr	r0, [pc, #12]	; (8001194 <Keypad_Init+0x8c>)
 8001188:	f000 fdca 	bl	8001d20 <MCAL_GPIO_Init>
}
 800118c:	bf00      	nop
 800118e:	3708      	adds	r7, #8
 8001190:	46bd      	mov	sp, r7
 8001192:	bd80      	pop	{r7, pc}
 8001194:	40010c00 	.word	0x40010c00

08001198 <Keypad_Get_Char>:
                :   Or NULL_CHAR if no key was pressed.
 * Note			:   none.
============================================================================================================
 */
uint8 Keypad_Get_Char(void)
{
 8001198:	b580      	push	{r7, lr}
 800119a:	b086      	sub	sp, #24
 800119c:	af00      	add	r7, sp, #0
	uint8 keypad_chars[] = KEYPAD_KEYS;
 800119e:	4a3a      	ldr	r2, [pc, #232]	; (8001288 <Keypad_Get_Char+0xf0>)
 80011a0:	f107 0308 	add.w	r3, r7, #8
 80011a4:	ca07      	ldmia	r2, {r0, r1, r2}
 80011a6:	e883 0007 	stmia.w	r3, {r0, r1, r2}

 	uint8 KeypadRowPins[] = {KEYPAD_ROW0, KEYPAD_ROW1, KEYPAD_ROW2, KEYPAD_ROW3};
 80011aa:	4b38      	ldr	r3, [pc, #224]	; (800128c <Keypad_Get_Char+0xf4>)
 80011ac:	681b      	ldr	r3, [r3, #0]
 80011ae:	607b      	str	r3, [r7, #4]
 	uint8 KeypadColPins[] = {KEYPAD_COL0, KEYPAD_COL1, KEYPAD_COL2};
 80011b0:	4a37      	ldr	r2, [pc, #220]	; (8001290 <Keypad_Get_Char+0xf8>)
 80011b2:	463b      	mov	r3, r7
 80011b4:	6812      	ldr	r2, [r2, #0]
 80011b6:	4611      	mov	r1, r2
 80011b8:	8019      	strh	r1, [r3, #0]
 80011ba:	3302      	adds	r3, #2
 80011bc:	0c12      	lsrs	r2, r2, #16
 80011be:	701a      	strb	r2, [r3, #0]

	uint8 col, row, pressedKey;

	pressedKey = NULL_CHAR;
 80011c0:	234e      	movs	r3, #78	; 0x4e
 80011c2:	757b      	strb	r3, [r7, #21]
	for(col = 0; col <  KEYPAD_COL_SIZE; col++)
 80011c4:	2300      	movs	r3, #0
 80011c6:	75fb      	strb	r3, [r7, #23]
 80011c8:	e053      	b.n	8001272 <Keypad_Get_Char+0xda>
	{
		/*High on all column pins */
		MCAL_GPIO_WritePin(KEYPAD_DATA_PORT, KEYPAD_COL0, GPIO_PIN_HIGH);
 80011ca:	2201      	movs	r2, #1
 80011cc:	210b      	movs	r1, #11
 80011ce:	4831      	ldr	r0, [pc, #196]	; (8001294 <Keypad_Get_Char+0xfc>)
 80011d0:	f000 fe19 	bl	8001e06 <MCAL_GPIO_WritePin>
		MCAL_GPIO_WritePin(KEYPAD_DATA_PORT, KEYPAD_COL1, GPIO_PIN_HIGH);
 80011d4:	2201      	movs	r2, #1
 80011d6:	2109      	movs	r1, #9
 80011d8:	482e      	ldr	r0, [pc, #184]	; (8001294 <Keypad_Get_Char+0xfc>)
 80011da:	f000 fe14 	bl	8001e06 <MCAL_GPIO_WritePin>
		MCAL_GPIO_WritePin(KEYPAD_DATA_PORT, KEYPAD_COL2, GPIO_PIN_HIGH);
 80011de:	2201      	movs	r2, #1
 80011e0:	2108      	movs	r1, #8
 80011e2:	482c      	ldr	r0, [pc, #176]	; (8001294 <Keypad_Get_Char+0xfc>)
 80011e4:	f000 fe0f 	bl	8001e06 <MCAL_GPIO_WritePin>

		/*Low output on the column to be tested.*/
		MCAL_GPIO_WritePin(KEYPAD_DATA_PORT, KeypadColPins[col], GPIO_PIN_LOW);
 80011e8:	7dfb      	ldrb	r3, [r7, #23]
 80011ea:	f107 0218 	add.w	r2, r7, #24
 80011ee:	4413      	add	r3, r2
 80011f0:	f813 3c18 	ldrb.w	r3, [r3, #-24]
 80011f4:	b29b      	uxth	r3, r3
 80011f6:	2200      	movs	r2, #0
 80011f8:	4619      	mov	r1, r3
 80011fa:	4826      	ldr	r0, [pc, #152]	; (8001294 <Keypad_Get_Char+0xfc>)
 80011fc:	f000 fe03 	bl	8001e06 <MCAL_GPIO_WritePin>

		for(row = 0; row < KEYPAD_ROW_SIZE; row++)
 8001200:	2300      	movs	r3, #0
 8001202:	75bb      	strb	r3, [r7, #22]
 8001204:	e02c      	b.n	8001260 <Keypad_Get_Char+0xc8>
		{
			/*Loop on all the buttons in this coloumn to
            see if any of them dropped to ground*/
			if(MCAL_GPIO_ReadPin(KEYPAD_DATA_PORT, KeypadRowPins[row]) == GPIO_PIN_LOW)
 8001206:	7dbb      	ldrb	r3, [r7, #22]
 8001208:	f107 0218 	add.w	r2, r7, #24
 800120c:	4413      	add	r3, r2
 800120e:	f813 3c14 	ldrb.w	r3, [r3, #-20]
 8001212:	b29b      	uxth	r3, r3
 8001214:	4619      	mov	r1, r3
 8001216:	481f      	ldr	r0, [pc, #124]	; (8001294 <Keypad_Get_Char+0xfc>)
 8001218:	f000 fdd9 	bl	8001dce <MCAL_GPIO_ReadPin>
 800121c:	4603      	mov	r3, r0
 800121e:	2b00      	cmp	r3, #0
 8001220:	d11b      	bne.n	800125a <Keypad_Get_Char+0xc2>
			{
				while(MCAL_GPIO_ReadPin(KEYPAD_DATA_PORT, KeypadRowPins[row]) == GPIO_PIN_LOW)
 8001222:	bf00      	nop
 8001224:	7dbb      	ldrb	r3, [r7, #22]
 8001226:	f107 0218 	add.w	r2, r7, #24
 800122a:	4413      	add	r3, r2
 800122c:	f813 3c14 	ldrb.w	r3, [r3, #-20]
 8001230:	b29b      	uxth	r3, r3
 8001232:	4619      	mov	r1, r3
 8001234:	4817      	ldr	r0, [pc, #92]	; (8001294 <Keypad_Get_Char+0xfc>)
 8001236:	f000 fdca 	bl	8001dce <MCAL_GPIO_ReadPin>
 800123a:	4603      	mov	r3, r0
 800123c:	2b00      	cmp	r3, #0
 800123e:	d0f1      	beq.n	8001224 <Keypad_Get_Char+0x8c>
				{

				}

				pressedKey = keypad_chars[(row * KEYPAD_COL_SIZE) + col];
 8001240:	7dba      	ldrb	r2, [r7, #22]
 8001242:	4613      	mov	r3, r2
 8001244:	005b      	lsls	r3, r3, #1
 8001246:	441a      	add	r2, r3
 8001248:	7dfb      	ldrb	r3, [r7, #23]
 800124a:	4413      	add	r3, r2
 800124c:	f107 0218 	add.w	r2, r7, #24
 8001250:	4413      	add	r3, r2
 8001252:	f813 3c10 	ldrb.w	r3, [r3, #-16]
 8001256:	757b      	strb	r3, [r7, #21]
				break;
 8001258:	e005      	b.n	8001266 <Keypad_Get_Char+0xce>
		for(row = 0; row < KEYPAD_ROW_SIZE; row++)
 800125a:	7dbb      	ldrb	r3, [r7, #22]
 800125c:	3301      	adds	r3, #1
 800125e:	75bb      	strb	r3, [r7, #22]
 8001260:	7dbb      	ldrb	r3, [r7, #22]
 8001262:	2b03      	cmp	r3, #3
 8001264:	d9cf      	bls.n	8001206 <Keypad_Get_Char+0x6e>
			}
		}

		if(pressedKey != NULL_CHAR)
 8001266:	7d7b      	ldrb	r3, [r7, #21]
 8001268:	2b4e      	cmp	r3, #78	; 0x4e
 800126a:	d106      	bne.n	800127a <Keypad_Get_Char+0xe2>
	for(col = 0; col <  KEYPAD_COL_SIZE; col++)
 800126c:	7dfb      	ldrb	r3, [r7, #23]
 800126e:	3301      	adds	r3, #1
 8001270:	75fb      	strb	r3, [r7, #23]
 8001272:	7dfb      	ldrb	r3, [r7, #23]
 8001274:	2b02      	cmp	r3, #2
 8001276:	d9a8      	bls.n	80011ca <Keypad_Get_Char+0x32>
 8001278:	e000      	b.n	800127c <Keypad_Get_Char+0xe4>
		{
			break;
 800127a:	bf00      	nop
		}
	}
	return pressedKey;
 800127c:	7d7b      	ldrb	r3, [r7, #21]
}
 800127e:	4618      	mov	r0, r3
 8001280:	3718      	adds	r7, #24
 8001282:	46bd      	mov	sp, r7
 8001284:	bd80      	pop	{r7, pc}
 8001286:	bf00      	nop
 8001288:	08002864 	.word	0x08002864
 800128c:	08002870 	.word	0x08002870
 8001290:	08002874 	.word	0x08002874
 8001294:	40010c00 	.word	0x40010c00

08001298 <_delay_ms>:
 * @return_value :	none.
 * Note			:	This isn't an accurate function.
============================================================================================================
 */
void _delay_ms(uint8 delay_Counter)
{
 8001298:	b480      	push	{r7}
 800129a:	b085      	sub	sp, #20
 800129c:	af00      	add	r7, sp, #0
 800129e:	4603      	mov	r3, r0
 80012a0:	71fb      	strb	r3, [r7, #7]
	volatile uint8 i, j;
	for(i = 0; i < delay_Counter; i++)
 80012a2:	2300      	movs	r3, #0
 80012a4:	73fb      	strb	r3, [r7, #15]
 80012a6:	e010      	b.n	80012ca <_delay_ms+0x32>
	{
		for ( j = 0; j < 100; j++)
 80012a8:	2300      	movs	r3, #0
 80012aa:	73bb      	strb	r3, [r7, #14]
 80012ac:	e004      	b.n	80012b8 <_delay_ms+0x20>
 80012ae:	7bbb      	ldrb	r3, [r7, #14]
 80012b0:	b2db      	uxtb	r3, r3
 80012b2:	3301      	adds	r3, #1
 80012b4:	b2db      	uxtb	r3, r3
 80012b6:	73bb      	strb	r3, [r7, #14]
 80012b8:	7bbb      	ldrb	r3, [r7, #14]
 80012ba:	b2db      	uxtb	r3, r3
 80012bc:	2b63      	cmp	r3, #99	; 0x63
 80012be:	d9f6      	bls.n	80012ae <_delay_ms+0x16>
	for(i = 0; i < delay_Counter; i++)
 80012c0:	7bfb      	ldrb	r3, [r7, #15]
 80012c2:	b2db      	uxtb	r3, r3
 80012c4:	3301      	adds	r3, #1
 80012c6:	b2db      	uxtb	r3, r3
 80012c8:	73fb      	strb	r3, [r7, #15]
 80012ca:	7bfb      	ldrb	r3, [r7, #15]
 80012cc:	b2db      	uxtb	r3, r3
 80012ce:	79fa      	ldrb	r2, [r7, #7]
 80012d0:	429a      	cmp	r2, r3
 80012d2:	d8e9      	bhi.n	80012a8 <_delay_ms+0x10>
		{
		}
	}
}
 80012d4:	bf00      	nop
 80012d6:	3714      	adds	r7, #20
 80012d8:	46bd      	mov	sp, r7
 80012da:	bc80      	pop	{r7}
 80012dc:	4770      	bx	lr
	...

080012e0 <LCD_Enable_Pulse>:
 * @return_value :	none.
 * Note			:	none.
============================================================================================================
 */
void LCD_Enable_Pulse()
{
 80012e0:	b580      	push	{r7, lr}
 80012e2:	af00      	add	r7, sp, #0
	MCAL_GPIO_WritePin(LCD_CTRL_PORT, LCD_EN_PIN, GPIO_PIN_HIGH);
 80012e4:	2201      	movs	r2, #1
 80012e6:	2101      	movs	r1, #1
 80012e8:	4806      	ldr	r0, [pc, #24]	; (8001304 <LCD_Enable_Pulse+0x24>)
 80012ea:	f000 fd8c 	bl	8001e06 <MCAL_GPIO_WritePin>
	_delay_ms(50);
 80012ee:	2032      	movs	r0, #50	; 0x32
 80012f0:	f7ff ffd2 	bl	8001298 <_delay_ms>
	MCAL_GPIO_WritePin(LCD_CTRL_PORT, LCD_EN_PIN, GPIO_PIN_LOW);
 80012f4:	2200      	movs	r2, #0
 80012f6:	2101      	movs	r1, #1
 80012f8:	4802      	ldr	r0, [pc, #8]	; (8001304 <LCD_Enable_Pulse+0x24>)
 80012fa:	f000 fd84 	bl	8001e06 <MCAL_GPIO_WritePin>
}
 80012fe:	bf00      	nop
 8001300:	bd80      	pop	{r7, pc}
 8001302:	bf00      	nop
 8001304:	40010c00 	.word	0x40010c00

08001308 <Check_End_Of_Line>:
 * @return_value :	none.
 * Note			:	none.
============================================================================================================
 */
void Check_End_Of_Line()
{
 8001308:	b580      	push	{r7, lr}
 800130a:	af00      	add	r7, sp, #0
	//If the first line is full go to the next line
	if(charCounter >= LCD_WIDTH && lineCounter < LCD_HEIGHT - 1)
 800130c:	4b16      	ldr	r3, [pc, #88]	; (8001368 <Check_End_Of_Line+0x60>)
 800130e:	781b      	ldrb	r3, [r3, #0]
 8001310:	2b0f      	cmp	r3, #15
 8001312:	d913      	bls.n	800133c <Check_End_Of_Line+0x34>
 8001314:	4b15      	ldr	r3, [pc, #84]	; (800136c <Check_End_Of_Line+0x64>)
 8001316:	781b      	ldrb	r3, [r3, #0]
 8001318:	2b02      	cmp	r3, #2
 800131a:	d80f      	bhi.n	800133c <Check_End_Of_Line+0x34>
	{
		charCounter = 0;
 800131c:	4b12      	ldr	r3, [pc, #72]	; (8001368 <Check_End_Of_Line+0x60>)
 800131e:	2200      	movs	r2, #0
 8001320:	701a      	strb	r2, [r3, #0]
		lineCounter++;
 8001322:	4b12      	ldr	r3, [pc, #72]	; (800136c <Check_End_Of_Line+0x64>)
 8001324:	781b      	ldrb	r3, [r3, #0]
 8001326:	3301      	adds	r3, #1
 8001328:	b2da      	uxtb	r2, r3
 800132a:	4b10      	ldr	r3, [pc, #64]	; (800136c <Check_End_Of_Line+0x64>)
 800132c:	701a      	strb	r2, [r3, #0]
		LCD_Cursor_XY(lineCounter, 0);
 800132e:	4b0f      	ldr	r3, [pc, #60]	; (800136c <Check_End_Of_Line+0x64>)
 8001330:	781b      	ldrb	r3, [r3, #0]
 8001332:	2100      	movs	r1, #0
 8001334:	4618      	mov	r0, r3
 8001336:	f000 f97d 	bl	8001634 <LCD_Cursor_XY>
		LCD_Clear_Screen();
		LCD_Send_Command(LCD_BEGIN_AT_FIRST_ROW);
		charCounter = 0;
		lineCounter = 0;
	}
}
 800133a:	e012      	b.n	8001362 <Check_End_Of_Line+0x5a>
	}else if(charCounter >= LCD_WIDTH && lineCounter == LCD_HEIGHT - 1)
 800133c:	4b0a      	ldr	r3, [pc, #40]	; (8001368 <Check_End_Of_Line+0x60>)
 800133e:	781b      	ldrb	r3, [r3, #0]
 8001340:	2b0f      	cmp	r3, #15
 8001342:	d90e      	bls.n	8001362 <Check_End_Of_Line+0x5a>
 8001344:	4b09      	ldr	r3, [pc, #36]	; (800136c <Check_End_Of_Line+0x64>)
 8001346:	781b      	ldrb	r3, [r3, #0]
 8001348:	2b03      	cmp	r3, #3
 800134a:	d10a      	bne.n	8001362 <Check_End_Of_Line+0x5a>
		LCD_Clear_Screen();
 800134c:	f000 f9ba 	bl	80016c4 <LCD_Clear_Screen>
		LCD_Send_Command(LCD_BEGIN_AT_FIRST_ROW);
 8001350:	2080      	movs	r0, #128	; 0x80
 8001352:	f000 f875 	bl	8001440 <LCD_Send_Command>
		charCounter = 0;
 8001356:	4b04      	ldr	r3, [pc, #16]	; (8001368 <Check_End_Of_Line+0x60>)
 8001358:	2200      	movs	r2, #0
 800135a:	701a      	strb	r2, [r3, #0]
		lineCounter = 0;
 800135c:	4b03      	ldr	r3, [pc, #12]	; (800136c <Check_End_Of_Line+0x64>)
 800135e:	2200      	movs	r2, #0
 8001360:	701a      	strb	r2, [r3, #0]
}
 8001362:	bf00      	nop
 8001364:	bd80      	pop	{r7, pc}
 8001366:	bf00      	nop
 8001368:	2000009e 	.word	0x2000009e
 800136c:	2000009f 	.word	0x2000009f

08001370 <LCD_Init>:
 * @return_value :   none.
 * Note			:   none.
============================================================================================================
 */
void LCD_Init(void)
{
 8001370:	b580      	push	{r7, lr}
 8001372:	af00      	add	r7, sp, #0
	/*Wait for the VCC to rise to the required value*/
	_delay_ms(20);
 8001374:	2014      	movs	r0, #20
 8001376:	f7ff ff8f 	bl	8001298 <_delay_ms>

	/*Set all CTRL bits as output*/
	config.pinNumber = LCD_RS_PIN;
 800137a:	4b2e      	ldr	r3, [pc, #184]	; (8001434 <LCD_Init+0xc4>)
 800137c:	2200      	movs	r2, #0
 800137e:	801a      	strh	r2, [r3, #0]
	config.pinMode = GPIO_MODE_GP_OUTPUT_PP_10MHZ;
 8001380:	4b2c      	ldr	r3, [pc, #176]	; (8001434 <LCD_Init+0xc4>)
 8001382:	2201      	movs	r2, #1
 8001384:	805a      	strh	r2, [r3, #2]
	MCAL_GPIO_Init(LCD_CTRL_PORT, &config);
 8001386:	492b      	ldr	r1, [pc, #172]	; (8001434 <LCD_Init+0xc4>)
 8001388:	482b      	ldr	r0, [pc, #172]	; (8001438 <LCD_Init+0xc8>)
 800138a:	f000 fcc9 	bl	8001d20 <MCAL_GPIO_Init>

	config.pinNumber = LCD_EN_PIN;
 800138e:	4b29      	ldr	r3, [pc, #164]	; (8001434 <LCD_Init+0xc4>)
 8001390:	2201      	movs	r2, #1
 8001392:	801a      	strh	r2, [r3, #0]
	config.pinMode = GPIO_MODE_GP_OUTPUT_PP_10MHZ;
 8001394:	4b27      	ldr	r3, [pc, #156]	; (8001434 <LCD_Init+0xc4>)
 8001396:	2201      	movs	r2, #1
 8001398:	805a      	strh	r2, [r3, #2]
	MCAL_GPIO_Init(LCD_CTRL_PORT, &config);
 800139a:	4926      	ldr	r1, [pc, #152]	; (8001434 <LCD_Init+0xc4>)
 800139c:	4826      	ldr	r0, [pc, #152]	; (8001438 <LCD_Init+0xc8>)
 800139e:	f000 fcbf 	bl	8001d20 <MCAL_GPIO_Init>


	/*Select ins register, Write operation and Enable zero*/
	MCAL_GPIO_WritePin(LCD_CTRL_PORT, LCD_EN_PIN, GPIO_PIN_LOW);
 80013a2:	2200      	movs	r2, #0
 80013a4:	2101      	movs	r1, #1
 80013a6:	4824      	ldr	r0, [pc, #144]	; (8001438 <LCD_Init+0xc8>)
 80013a8:	f000 fd2d 	bl	8001e06 <MCAL_GPIO_WritePin>
	MCAL_GPIO_WritePin(LCD_CTRL_PORT, LCD_RS_PIN, LCD_INS_REG);
 80013ac:	2200      	movs	r2, #0
 80013ae:	2100      	movs	r1, #0
 80013b0:	4821      	ldr	r0, [pc, #132]	; (8001438 <LCD_Init+0xc8>)
 80013b2:	f000 fd28 	bl	8001e06 <MCAL_GPIO_WritePin>
	_delay_ms(15);
 80013b6:	200f      	movs	r0, #15
 80013b8:	f7ff ff6e 	bl	8001298 <_delay_ms>
	MCAL_GPIO_Init(LCD_DATA_PORT, &config);

	LCD_Send_Command(LCD_FUNC_8BIT_2LINES);
#elif LCD_MODE_ == FOUR_BIT_MODE
	/*In case of 4 bits mode the upper 4 pins of the port are output*/
	config.pinNumber = LCD_D4;
 80013bc:	4b1d      	ldr	r3, [pc, #116]	; (8001434 <LCD_Init+0xc4>)
 80013be:	220a      	movs	r2, #10
 80013c0:	801a      	strh	r2, [r3, #0]
	config.pinMode = GPIO_MODE_GP_OUTPUT_PP_10MHZ;
 80013c2:	4b1c      	ldr	r3, [pc, #112]	; (8001434 <LCD_Init+0xc4>)
 80013c4:	2201      	movs	r2, #1
 80013c6:	805a      	strh	r2, [r3, #2]
	MCAL_GPIO_Init(LCD_DATA_PORT, &config);
 80013c8:	491a      	ldr	r1, [pc, #104]	; (8001434 <LCD_Init+0xc4>)
 80013ca:	481c      	ldr	r0, [pc, #112]	; (800143c <LCD_Init+0xcc>)
 80013cc:	f000 fca8 	bl	8001d20 <MCAL_GPIO_Init>
	
	config.pinNumber = LCD_D5;
 80013d0:	4b18      	ldr	r3, [pc, #96]	; (8001434 <LCD_Init+0xc4>)
 80013d2:	220b      	movs	r2, #11
 80013d4:	801a      	strh	r2, [r3, #0]
	config.pinMode = GPIO_MODE_GP_OUTPUT_PP_10MHZ;
 80013d6:	4b17      	ldr	r3, [pc, #92]	; (8001434 <LCD_Init+0xc4>)
 80013d8:	2201      	movs	r2, #1
 80013da:	805a      	strh	r2, [r3, #2]
	MCAL_GPIO_Init(LCD_DATA_PORT, &config);
 80013dc:	4915      	ldr	r1, [pc, #84]	; (8001434 <LCD_Init+0xc4>)
 80013de:	4817      	ldr	r0, [pc, #92]	; (800143c <LCD_Init+0xcc>)
 80013e0:	f000 fc9e 	bl	8001d20 <MCAL_GPIO_Init>
	
	config.pinNumber = LCD_D6;
 80013e4:	4b13      	ldr	r3, [pc, #76]	; (8001434 <LCD_Init+0xc4>)
 80013e6:	220c      	movs	r2, #12
 80013e8:	801a      	strh	r2, [r3, #0]
	config.pinMode = GPIO_MODE_GP_OUTPUT_PP_10MHZ;
 80013ea:	4b12      	ldr	r3, [pc, #72]	; (8001434 <LCD_Init+0xc4>)
 80013ec:	2201      	movs	r2, #1
 80013ee:	805a      	strh	r2, [r3, #2]
	MCAL_GPIO_Init(LCD_DATA_PORT, &config);
 80013f0:	4910      	ldr	r1, [pc, #64]	; (8001434 <LCD_Init+0xc4>)
 80013f2:	4812      	ldr	r0, [pc, #72]	; (800143c <LCD_Init+0xcc>)
 80013f4:	f000 fc94 	bl	8001d20 <MCAL_GPIO_Init>
	
	config.pinNumber = LCD_D7;
 80013f8:	4b0e      	ldr	r3, [pc, #56]	; (8001434 <LCD_Init+0xc4>)
 80013fa:	220f      	movs	r2, #15
 80013fc:	801a      	strh	r2, [r3, #0]
	config.pinMode = GPIO_MODE_GP_OUTPUT_PP_10MHZ;
 80013fe:	4b0d      	ldr	r3, [pc, #52]	; (8001434 <LCD_Init+0xc4>)
 8001400:	2201      	movs	r2, #1
 8001402:	805a      	strh	r2, [r3, #2]
	MCAL_GPIO_Init(LCD_DATA_PORT, &config);
 8001404:	490b      	ldr	r1, [pc, #44]	; (8001434 <LCD_Init+0xc4>)
 8001406:	480d      	ldr	r0, [pc, #52]	; (800143c <LCD_Init+0xcc>)
 8001408:	f000 fc8a 	bl	8001d20 <MCAL_GPIO_Init>

	_delay_ms(5);
 800140c:	2005      	movs	r0, #5
 800140e:	f7ff ff43 	bl	8001298 <_delay_ms>

	LCD_Send_Command(LCD_RETURN_HOME);
 8001412:	2002      	movs	r0, #2
 8001414:	f000 f814 	bl	8001440 <LCD_Send_Command>
	LCD_Send_Command(LCD_FUNC_4BIT_2LINES);
 8001418:	2028      	movs	r0, #40	; 0x28
 800141a:	f000 f811 	bl	8001440 <LCD_Send_Command>
#endif

	LCD_Send_Command(LCD_ENTRY_MODE);
 800141e:	2006      	movs	r0, #6
 8001420:	f000 f80e 	bl	8001440 <LCD_Send_Command>
	LCD_Send_Command(LCD_BEGIN_AT_FIRST_ROW);
 8001424:	2080      	movs	r0, #128	; 0x80
 8001426:	f000 f80b 	bl	8001440 <LCD_Send_Command>
	LCD_Send_Command(LCD_DISPLAY_ON_CURSOR_BLINK);
 800142a:	200f      	movs	r0, #15
 800142c:	f000 f808 	bl	8001440 <LCD_Send_Command>
}
 8001430:	bf00      	nop
 8001432:	bd80      	pop	{r7, pc}
 8001434:	200000ec 	.word	0x200000ec
 8001438:	40010c00 	.word	0x40010c00
 800143c:	40010800 	.word	0x40010800

08001440 <LCD_Send_Command>:
 * @return_value :   none.
 * Note			:   none.
============================================================================================================
 */
void LCD_Send_Command(uint8 command)
{
 8001440:	b580      	push	{r7, lr}
 8001442:	b082      	sub	sp, #8
 8001444:	af00      	add	r7, sp, #0
 8001446:	4603      	mov	r3, r0
 8001448:	71fb      	strb	r3, [r7, #7]
	/*Check if the LCD is busy*/
	/*LCD_Busy_Wait();*/

	/*Select ins register, Write operation and Enable zero*/
	MCAL_GPIO_WritePin(LCD_CTRL_PORT, LCD_RS_PIN, LCD_INS_REG);
 800144a:	2200      	movs	r2, #0
 800144c:	2100      	movs	r1, #0
 800144e:	4831      	ldr	r0, [pc, #196]	; (8001514 <LCD_Send_Command+0xd4>)
 8001450:	f000 fcd9 	bl	8001e06 <MCAL_GPIO_WritePin>
	MCAL_GPIO_WritePin(LCD_CTRL_PORT, LCD_EN_PIN, GPIO_PIN_LOW);
 8001454:	2200      	movs	r2, #0
 8001456:	2101      	movs	r1, #1
 8001458:	482e      	ldr	r0, [pc, #184]	; (8001514 <LCD_Send_Command+0xd4>)
 800145a:	f000 fcd4 	bl	8001e06 <MCAL_GPIO_WritePin>
	MCAL_GPIO_WritePin(LCD_DATA_PORT, LCD_D7, READ_BIT(command, 7));

	LCD_Enable_Pulse();
#elif LCD_MODE_ == FOUR_BIT_MODE
	/*Send the command upper nibble first*/
	MCAL_GPIO_WritePin(LCD_DATA_PORT, LCD_D4, READ_BIT(command, 4));
 800145e:	79fb      	ldrb	r3, [r7, #7]
 8001460:	111b      	asrs	r3, r3, #4
 8001462:	b2db      	uxtb	r3, r3
 8001464:	f003 0301 	and.w	r3, r3, #1
 8001468:	b2db      	uxtb	r3, r3
 800146a:	461a      	mov	r2, r3
 800146c:	210a      	movs	r1, #10
 800146e:	482a      	ldr	r0, [pc, #168]	; (8001518 <LCD_Send_Command+0xd8>)
 8001470:	f000 fcc9 	bl	8001e06 <MCAL_GPIO_WritePin>
	MCAL_GPIO_WritePin(LCD_DATA_PORT, LCD_D5, READ_BIT(command, 5));
 8001474:	79fb      	ldrb	r3, [r7, #7]
 8001476:	115b      	asrs	r3, r3, #5
 8001478:	b2db      	uxtb	r3, r3
 800147a:	f003 0301 	and.w	r3, r3, #1
 800147e:	b2db      	uxtb	r3, r3
 8001480:	461a      	mov	r2, r3
 8001482:	210b      	movs	r1, #11
 8001484:	4824      	ldr	r0, [pc, #144]	; (8001518 <LCD_Send_Command+0xd8>)
 8001486:	f000 fcbe 	bl	8001e06 <MCAL_GPIO_WritePin>
	MCAL_GPIO_WritePin(LCD_DATA_PORT, LCD_D6, READ_BIT(command, 6));
 800148a:	79fb      	ldrb	r3, [r7, #7]
 800148c:	119b      	asrs	r3, r3, #6
 800148e:	b2db      	uxtb	r3, r3
 8001490:	f003 0301 	and.w	r3, r3, #1
 8001494:	b2db      	uxtb	r3, r3
 8001496:	461a      	mov	r2, r3
 8001498:	210c      	movs	r1, #12
 800149a:	481f      	ldr	r0, [pc, #124]	; (8001518 <LCD_Send_Command+0xd8>)
 800149c:	f000 fcb3 	bl	8001e06 <MCAL_GPIO_WritePin>
	MCAL_GPIO_WritePin(LCD_DATA_PORT, LCD_D7, READ_BIT(command, 7));
 80014a0:	79fb      	ldrb	r3, [r7, #7]
 80014a2:	09db      	lsrs	r3, r3, #7
 80014a4:	b2db      	uxtb	r3, r3
 80014a6:	461a      	mov	r2, r3
 80014a8:	210f      	movs	r1, #15
 80014aa:	481b      	ldr	r0, [pc, #108]	; (8001518 <LCD_Send_Command+0xd8>)
 80014ac:	f000 fcab 	bl	8001e06 <MCAL_GPIO_WritePin>
	LCD_Enable_Pulse();
 80014b0:	f7ff ff16 	bl	80012e0 <LCD_Enable_Pulse>

	/*Send the command lower nibble first*/
	MCAL_GPIO_WritePin(LCD_DATA_PORT, LCD_D4, READ_BIT(command, 0));
 80014b4:	79fb      	ldrb	r3, [r7, #7]
 80014b6:	f003 0301 	and.w	r3, r3, #1
 80014ba:	b2db      	uxtb	r3, r3
 80014bc:	461a      	mov	r2, r3
 80014be:	210a      	movs	r1, #10
 80014c0:	4815      	ldr	r0, [pc, #84]	; (8001518 <LCD_Send_Command+0xd8>)
 80014c2:	f000 fca0 	bl	8001e06 <MCAL_GPIO_WritePin>
	MCAL_GPIO_WritePin(LCD_DATA_PORT, LCD_D5, READ_BIT(command, 1));
 80014c6:	79fb      	ldrb	r3, [r7, #7]
 80014c8:	105b      	asrs	r3, r3, #1
 80014ca:	b2db      	uxtb	r3, r3
 80014cc:	f003 0301 	and.w	r3, r3, #1
 80014d0:	b2db      	uxtb	r3, r3
 80014d2:	461a      	mov	r2, r3
 80014d4:	210b      	movs	r1, #11
 80014d6:	4810      	ldr	r0, [pc, #64]	; (8001518 <LCD_Send_Command+0xd8>)
 80014d8:	f000 fc95 	bl	8001e06 <MCAL_GPIO_WritePin>
	MCAL_GPIO_WritePin(LCD_DATA_PORT, LCD_D6, READ_BIT(command, 2));
 80014dc:	79fb      	ldrb	r3, [r7, #7]
 80014de:	109b      	asrs	r3, r3, #2
 80014e0:	b2db      	uxtb	r3, r3
 80014e2:	f003 0301 	and.w	r3, r3, #1
 80014e6:	b2db      	uxtb	r3, r3
 80014e8:	461a      	mov	r2, r3
 80014ea:	210c      	movs	r1, #12
 80014ec:	480a      	ldr	r0, [pc, #40]	; (8001518 <LCD_Send_Command+0xd8>)
 80014ee:	f000 fc8a 	bl	8001e06 <MCAL_GPIO_WritePin>
	MCAL_GPIO_WritePin(LCD_DATA_PORT, LCD_D7, READ_BIT(command, 3));
 80014f2:	79fb      	ldrb	r3, [r7, #7]
 80014f4:	10db      	asrs	r3, r3, #3
 80014f6:	b2db      	uxtb	r3, r3
 80014f8:	f003 0301 	and.w	r3, r3, #1
 80014fc:	b2db      	uxtb	r3, r3
 80014fe:	461a      	mov	r2, r3
 8001500:	210f      	movs	r1, #15
 8001502:	4805      	ldr	r0, [pc, #20]	; (8001518 <LCD_Send_Command+0xd8>)
 8001504:	f000 fc7f 	bl	8001e06 <MCAL_GPIO_WritePin>
	LCD_Enable_Pulse();
 8001508:	f7ff feea 	bl	80012e0 <LCD_Enable_Pulse>
#endif
}
 800150c:	bf00      	nop
 800150e:	3708      	adds	r7, #8
 8001510:	46bd      	mov	sp, r7
 8001512:	bd80      	pop	{r7, pc}
 8001514:	40010c00 	.word	0x40010c00
 8001518:	40010800 	.word	0x40010800

0800151c <LCD_Send_Char>:
* Note			:   when you get to the end of the line the next character will be printed on the next line.
*               :   if the entire LCD is full the LCD will be cleared first then print the character.
============================================================================================================
 */
void LCD_Send_Char(uint8 data)
{
 800151c:	b580      	push	{r7, lr}
 800151e:	b082      	sub	sp, #8
 8001520:	af00      	add	r7, sp, #0
 8001522:	4603      	mov	r3, r0
 8001524:	71fb      	strb	r3, [r7, #7]
	/*Check if the LCD is busy*/
	/*LCD_Busy_Wait();*/
	Check_End_Of_Line();
 8001526:	f7ff feef 	bl	8001308 <Check_End_Of_Line>

	/*Data reigster, Write operation and Enable zero*/
	MCAL_GPIO_WritePin(LCD_CTRL_PORT, LCD_RS_PIN, LCD_DATA_REG);
 800152a:	2201      	movs	r2, #1
 800152c:	2100      	movs	r1, #0
 800152e:	4834      	ldr	r0, [pc, #208]	; (8001600 <LCD_Send_Char+0xe4>)
 8001530:	f000 fc69 	bl	8001e06 <MCAL_GPIO_WritePin>
	MCAL_GPIO_WritePin(LCD_CTRL_PORT, LCD_EN_PIN, GPIO_PIN_LOW);
 8001534:	2200      	movs	r2, #0
 8001536:	2101      	movs	r1, #1
 8001538:	4831      	ldr	r0, [pc, #196]	; (8001600 <LCD_Send_Char+0xe4>)
 800153a:	f000 fc64 	bl	8001e06 <MCAL_GPIO_WritePin>
	MCAL_GPIO_WritePin(LCD_DATA_PORT, LCD_D7, READ_BIT(data, 7));

	LCD_Enable_Pulse();
#elif LCD_MODE_ == FOUR_BIT_MODE
	/*Send the data upper nibble first*/
	MCAL_GPIO_WritePin(LCD_DATA_PORT, LCD_D4, READ_BIT(data, 4));
 800153e:	79fb      	ldrb	r3, [r7, #7]
 8001540:	111b      	asrs	r3, r3, #4
 8001542:	b2db      	uxtb	r3, r3
 8001544:	f003 0301 	and.w	r3, r3, #1
 8001548:	b2db      	uxtb	r3, r3
 800154a:	461a      	mov	r2, r3
 800154c:	210a      	movs	r1, #10
 800154e:	482d      	ldr	r0, [pc, #180]	; (8001604 <LCD_Send_Char+0xe8>)
 8001550:	f000 fc59 	bl	8001e06 <MCAL_GPIO_WritePin>
	MCAL_GPIO_WritePin(LCD_DATA_PORT, LCD_D5, READ_BIT(data, 5));
 8001554:	79fb      	ldrb	r3, [r7, #7]
 8001556:	115b      	asrs	r3, r3, #5
 8001558:	b2db      	uxtb	r3, r3
 800155a:	f003 0301 	and.w	r3, r3, #1
 800155e:	b2db      	uxtb	r3, r3
 8001560:	461a      	mov	r2, r3
 8001562:	210b      	movs	r1, #11
 8001564:	4827      	ldr	r0, [pc, #156]	; (8001604 <LCD_Send_Char+0xe8>)
 8001566:	f000 fc4e 	bl	8001e06 <MCAL_GPIO_WritePin>
	MCAL_GPIO_WritePin(LCD_DATA_PORT, LCD_D6, READ_BIT(data, 6));
 800156a:	79fb      	ldrb	r3, [r7, #7]
 800156c:	119b      	asrs	r3, r3, #6
 800156e:	b2db      	uxtb	r3, r3
 8001570:	f003 0301 	and.w	r3, r3, #1
 8001574:	b2db      	uxtb	r3, r3
 8001576:	461a      	mov	r2, r3
 8001578:	210c      	movs	r1, #12
 800157a:	4822      	ldr	r0, [pc, #136]	; (8001604 <LCD_Send_Char+0xe8>)
 800157c:	f000 fc43 	bl	8001e06 <MCAL_GPIO_WritePin>
	MCAL_GPIO_WritePin(LCD_DATA_PORT, LCD_D7, READ_BIT(data, 7));
 8001580:	79fb      	ldrb	r3, [r7, #7]
 8001582:	09db      	lsrs	r3, r3, #7
 8001584:	b2db      	uxtb	r3, r3
 8001586:	461a      	mov	r2, r3
 8001588:	210f      	movs	r1, #15
 800158a:	481e      	ldr	r0, [pc, #120]	; (8001604 <LCD_Send_Char+0xe8>)
 800158c:	f000 fc3b 	bl	8001e06 <MCAL_GPIO_WritePin>
	LCD_Enable_Pulse();
 8001590:	f7ff fea6 	bl	80012e0 <LCD_Enable_Pulse>

	/*Send the data lower nibble first*/
	MCAL_GPIO_WritePin(LCD_DATA_PORT, LCD_D4, READ_BIT(data, 0));
 8001594:	79fb      	ldrb	r3, [r7, #7]
 8001596:	f003 0301 	and.w	r3, r3, #1
 800159a:	b2db      	uxtb	r3, r3
 800159c:	461a      	mov	r2, r3
 800159e:	210a      	movs	r1, #10
 80015a0:	4818      	ldr	r0, [pc, #96]	; (8001604 <LCD_Send_Char+0xe8>)
 80015a2:	f000 fc30 	bl	8001e06 <MCAL_GPIO_WritePin>
	MCAL_GPIO_WritePin(LCD_DATA_PORT, LCD_D5, READ_BIT(data, 1));
 80015a6:	79fb      	ldrb	r3, [r7, #7]
 80015a8:	105b      	asrs	r3, r3, #1
 80015aa:	b2db      	uxtb	r3, r3
 80015ac:	f003 0301 	and.w	r3, r3, #1
 80015b0:	b2db      	uxtb	r3, r3
 80015b2:	461a      	mov	r2, r3
 80015b4:	210b      	movs	r1, #11
 80015b6:	4813      	ldr	r0, [pc, #76]	; (8001604 <LCD_Send_Char+0xe8>)
 80015b8:	f000 fc25 	bl	8001e06 <MCAL_GPIO_WritePin>
	MCAL_GPIO_WritePin(LCD_DATA_PORT, LCD_D6, READ_BIT(data, 2));
 80015bc:	79fb      	ldrb	r3, [r7, #7]
 80015be:	109b      	asrs	r3, r3, #2
 80015c0:	b2db      	uxtb	r3, r3
 80015c2:	f003 0301 	and.w	r3, r3, #1
 80015c6:	b2db      	uxtb	r3, r3
 80015c8:	461a      	mov	r2, r3
 80015ca:	210c      	movs	r1, #12
 80015cc:	480d      	ldr	r0, [pc, #52]	; (8001604 <LCD_Send_Char+0xe8>)
 80015ce:	f000 fc1a 	bl	8001e06 <MCAL_GPIO_WritePin>
	MCAL_GPIO_WritePin(LCD_DATA_PORT, LCD_D7, READ_BIT(data, 3));
 80015d2:	79fb      	ldrb	r3, [r7, #7]
 80015d4:	10db      	asrs	r3, r3, #3
 80015d6:	b2db      	uxtb	r3, r3
 80015d8:	f003 0301 	and.w	r3, r3, #1
 80015dc:	b2db      	uxtb	r3, r3
 80015de:	461a      	mov	r2, r3
 80015e0:	210f      	movs	r1, #15
 80015e2:	4808      	ldr	r0, [pc, #32]	; (8001604 <LCD_Send_Char+0xe8>)
 80015e4:	f000 fc0f 	bl	8001e06 <MCAL_GPIO_WritePin>
	LCD_Enable_Pulse();
 80015e8:	f7ff fe7a 	bl	80012e0 <LCD_Enable_Pulse>
#endif
	charCounter++;
 80015ec:	4b06      	ldr	r3, [pc, #24]	; (8001608 <LCD_Send_Char+0xec>)
 80015ee:	781b      	ldrb	r3, [r3, #0]
 80015f0:	3301      	adds	r3, #1
 80015f2:	b2da      	uxtb	r2, r3
 80015f4:	4b04      	ldr	r3, [pc, #16]	; (8001608 <LCD_Send_Char+0xec>)
 80015f6:	701a      	strb	r2, [r3, #0]
}
 80015f8:	bf00      	nop
 80015fa:	3708      	adds	r7, #8
 80015fc:	46bd      	mov	sp, r7
 80015fe:	bd80      	pop	{r7, pc}
 8001600:	40010c00 	.word	0x40010c00
 8001604:	40010800 	.word	0x40010800
 8001608:	2000009e 	.word	0x2000009e

0800160c <LCD_Send_String>:
 * Note			:   when you get to the end of the line the next character will be printed on the next line.
 *              :   if the entire LCD is full the LCD will be cleared first then print the character.
============================================================================================================
 */
void LCD_Send_String(uint8* string)
{
 800160c:	b580      	push	{r7, lr}
 800160e:	b082      	sub	sp, #8
 8001610:	af00      	add	r7, sp, #0
 8001612:	6078      	str	r0, [r7, #4]
	while(*string)
 8001614:	e006      	b.n	8001624 <LCD_Send_String+0x18>
	{
		LCD_Send_Char(*string++);
 8001616:	687b      	ldr	r3, [r7, #4]
 8001618:	1c5a      	adds	r2, r3, #1
 800161a:	607a      	str	r2, [r7, #4]
 800161c:	781b      	ldrb	r3, [r3, #0]
 800161e:	4618      	mov	r0, r3
 8001620:	f7ff ff7c 	bl	800151c <LCD_Send_Char>
	while(*string)
 8001624:	687b      	ldr	r3, [r7, #4]
 8001626:	781b      	ldrb	r3, [r3, #0]
 8001628:	2b00      	cmp	r3, #0
 800162a:	d1f4      	bne.n	8001616 <LCD_Send_String+0xa>
	}
}
 800162c:	bf00      	nop
 800162e:	3708      	adds	r7, #8
 8001630:	46bd      	mov	sp, r7
 8001632:	bd80      	pop	{r7, pc}

08001634 <LCD_Cursor_XY>:
 * @return_value:   none.
 * Note			:   none.
============================================================================================================
 */
void LCD_Cursor_XY(uint8 line, uint8 col)
{
 8001634:	b580      	push	{r7, lr}
 8001636:	b082      	sub	sp, #8
 8001638:	af00      	add	r7, sp, #0
 800163a:	4603      	mov	r3, r0
 800163c:	460a      	mov	r2, r1
 800163e:	71fb      	strb	r3, [r7, #7]
 8001640:	4613      	mov	r3, r2
 8001642:	71bb      	strb	r3, [r7, #6]
	/*Check if the arguments are in the allowed range*/
	if(((col >= 0) && (col < LCD_WIDTH)) && ((line >= 0) && (line < LCD_HEIGHT)))
 8001644:	79bb      	ldrb	r3, [r7, #6]
 8001646:	2b0f      	cmp	r3, #15
 8001648:	d833      	bhi.n	80016b2 <LCD_Cursor_XY+0x7e>
 800164a:	79fb      	ldrb	r3, [r7, #7]
 800164c:	2b03      	cmp	r3, #3
 800164e:	d830      	bhi.n	80016b2 <LCD_Cursor_XY+0x7e>
	{
		switch (line)
 8001650:	79fb      	ldrb	r3, [r7, #7]
 8001652:	2b03      	cmp	r3, #3
 8001654:	d826      	bhi.n	80016a4 <LCD_Cursor_XY+0x70>
 8001656:	a201      	add	r2, pc, #4	; (adr r2, 800165c <LCD_Cursor_XY+0x28>)
 8001658:	f852 f023 	ldr.w	pc, [r2, r3, lsl #2]
 800165c:	0800166d 	.word	0x0800166d
 8001660:	0800167b 	.word	0x0800167b
 8001664:	08001689 	.word	0x08001689
 8001668:	08001697 	.word	0x08001697
		{
		case LCD_FIRST_LINE:
			LCD_Send_Command(LCD_BEGIN_AT_FIRST_ROW + col);
 800166c:	79bb      	ldrb	r3, [r7, #6]
 800166e:	3b80      	subs	r3, #128	; 0x80
 8001670:	b2db      	uxtb	r3, r3
 8001672:	4618      	mov	r0, r3
 8001674:	f7ff fee4 	bl	8001440 <LCD_Send_Command>
			break;
 8001678:	e015      	b.n	80016a6 <LCD_Cursor_XY+0x72>
		case LCD_SECOND_LINE:
			LCD_Send_Command(LCD_BEGIN_AT_SECOND_ROW + col);
 800167a:	79bb      	ldrb	r3, [r7, #6]
 800167c:	3b40      	subs	r3, #64	; 0x40
 800167e:	b2db      	uxtb	r3, r3
 8001680:	4618      	mov	r0, r3
 8001682:	f7ff fedd 	bl	8001440 <LCD_Send_Command>
			break;
 8001686:	e00e      	b.n	80016a6 <LCD_Cursor_XY+0x72>
		case LCD_THIRD_LINE:
			LCD_Send_Command(LCD_BEGIN_AT_THIRD_ROW + col);
 8001688:	79bb      	ldrb	r3, [r7, #6]
 800168a:	3b70      	subs	r3, #112	; 0x70
 800168c:	b2db      	uxtb	r3, r3
 800168e:	4618      	mov	r0, r3
 8001690:	f7ff fed6 	bl	8001440 <LCD_Send_Command>
			break;
 8001694:	e007      	b.n	80016a6 <LCD_Cursor_XY+0x72>
		case LCD_FOURTH_LINE:
			LCD_Send_Command(LCD_BEGIN_AT_FOURTH_ROW + col);
 8001696:	79bb      	ldrb	r3, [r7, #6]
 8001698:	3b30      	subs	r3, #48	; 0x30
 800169a:	b2db      	uxtb	r3, r3
 800169c:	4618      	mov	r0, r3
 800169e:	f7ff fecf 	bl	8001440 <LCD_Send_Command>
			break;
 80016a2:	e000      	b.n	80016a6 <LCD_Cursor_XY+0x72>

		default:
			break;
 80016a4:	bf00      	nop
		}

		lineCounter = line;
 80016a6:	4a05      	ldr	r2, [pc, #20]	; (80016bc <LCD_Cursor_XY+0x88>)
 80016a8:	79fb      	ldrb	r3, [r7, #7]
 80016aa:	7013      	strb	r3, [r2, #0]
		charCounter = col;
 80016ac:	4a04      	ldr	r2, [pc, #16]	; (80016c0 <LCD_Cursor_XY+0x8c>)
 80016ae:	79bb      	ldrb	r3, [r7, #6]
 80016b0:	7013      	strb	r3, [r2, #0]
	}
}
 80016b2:	bf00      	nop
 80016b4:	3708      	adds	r7, #8
 80016b6:	46bd      	mov	sp, r7
 80016b8:	bd80      	pop	{r7, pc}
 80016ba:	bf00      	nop
 80016bc:	2000009f 	.word	0x2000009f
 80016c0:	2000009e 	.word	0x2000009e

080016c4 <LCD_Clear_Screen>:
 * @return_value :   none.
 * Note			:   none.
============================================================================================================
 */
void LCD_Clear_Screen()
{
 80016c4:	b580      	push	{r7, lr}
 80016c6:	af00      	add	r7, sp, #0
	LCD_Send_Command(LCD_CLEAR_SCREEN);
 80016c8:	2001      	movs	r0, #1
 80016ca:	f7ff feb9 	bl	8001440 <LCD_Send_Command>
	charCounter = 0;
 80016ce:	4b04      	ldr	r3, [pc, #16]	; (80016e0 <LCD_Clear_Screen+0x1c>)
 80016d0:	2200      	movs	r2, #0
 80016d2:	701a      	strb	r2, [r3, #0]
	lineCounter = 0;
 80016d4:	4b03      	ldr	r3, [pc, #12]	; (80016e4 <LCD_Clear_Screen+0x20>)
 80016d6:	2200      	movs	r2, #0
 80016d8:	701a      	strb	r2, [r3, #0]
}
 80016da:	bf00      	nop
 80016dc:	bd80      	pop	{r7, pc}
 80016de:	bf00      	nop
 80016e0:	2000009e 	.word	0x2000009e
 80016e4:	2000009f 	.word	0x2000009f

080016e8 <HAL_SevenSeg_Init>:
/**
 * @brief This function initializes the binary coded seven segment display.
 * 
 */
void HAL_SevenSeg_Init(void)
{
 80016e8:	b580      	push	{r7, lr}
 80016ea:	b082      	sub	sp, #8
 80016ec:	af00      	add	r7, sp, #0
    GPIO_Pin_Config_t cfg;
    cfg.pinMode = GPIO_MODE_GP_OUTPUT_PP_2MHZ;
 80016ee:	2302      	movs	r3, #2
 80016f0:	80fb      	strh	r3, [r7, #6]

    cfg.pinNumber = SEVEN_SEGMEN_A_PIN;
 80016f2:	2300      	movs	r3, #0
 80016f4:	80bb      	strh	r3, [r7, #4]
    MCAL_GPIO_Init(SEVEN_SEGMEN_A_PORT, &cfg);
 80016f6:	1d3b      	adds	r3, r7, #4
 80016f8:	4619      	mov	r1, r3
 80016fa:	480e      	ldr	r0, [pc, #56]	; (8001734 <HAL_SevenSeg_Init+0x4c>)
 80016fc:	f000 fb10 	bl	8001d20 <MCAL_GPIO_Init>
    
    cfg.pinNumber = SEVEN_SEGMEN_B_PIN;
 8001700:	2301      	movs	r3, #1
 8001702:	80bb      	strh	r3, [r7, #4]
    MCAL_GPIO_Init(SEVEN_SEGMEN_B_PORT, &cfg);
 8001704:	1d3b      	adds	r3, r7, #4
 8001706:	4619      	mov	r1, r3
 8001708:	480a      	ldr	r0, [pc, #40]	; (8001734 <HAL_SevenSeg_Init+0x4c>)
 800170a:	f000 fb09 	bl	8001d20 <MCAL_GPIO_Init>
    
    cfg.pinNumber = SEVEN_SEGMEN_C_PIN;
 800170e:	2302      	movs	r3, #2
 8001710:	80bb      	strh	r3, [r7, #4]
    MCAL_GPIO_Init(SEVEN_SEGMEN_C_PORT, &cfg);
 8001712:	1d3b      	adds	r3, r7, #4
 8001714:	4619      	mov	r1, r3
 8001716:	4807      	ldr	r0, [pc, #28]	; (8001734 <HAL_SevenSeg_Init+0x4c>)
 8001718:	f000 fb02 	bl	8001d20 <MCAL_GPIO_Init>
    
    cfg.pinNumber = SEVEN_SEGMEN_D_PIN;
 800171c:	2303      	movs	r3, #3
 800171e:	80bb      	strh	r3, [r7, #4]
    MCAL_GPIO_Init(SEVEN_SEGMEN_D_PORT, &cfg);
 8001720:	1d3b      	adds	r3, r7, #4
 8001722:	4619      	mov	r1, r3
 8001724:	4803      	ldr	r0, [pc, #12]	; (8001734 <HAL_SevenSeg_Init+0x4c>)
 8001726:	f000 fafb 	bl	8001d20 <MCAL_GPIO_Init>
}
 800172a:	bf00      	nop
 800172c:	3708      	adds	r7, #8
 800172e:	46bd      	mov	sp, r7
 8001730:	bd80      	pop	{r7, pc}
 8001732:	bf00      	nop
 8001734:	40010800 	.word	0x40010800

08001738 <HAL_SevenSeg_DisplayNumber>:
 * @brief This function displays a given number onto the display.
 * 
 * @param copy_Number : Number to be displayed must be between 0 and 9.
 */
void HAL_SevenSeg_DisplayNumber(uint8 copy_Number)
{
 8001738:	b580      	push	{r7, lr}
 800173a:	b082      	sub	sp, #8
 800173c:	af00      	add	r7, sp, #0
 800173e:	4603      	mov	r3, r0
 8001740:	71fb      	strb	r3, [r7, #7]
    MCAL_GPIO_WritePin(SEVEN_SEGMEN_A_PORT, SEVEN_SEGMEN_A_PIN, READ_BIT(copy_Number, 3));
 8001742:	79fb      	ldrb	r3, [r7, #7]
 8001744:	10db      	asrs	r3, r3, #3
 8001746:	b2db      	uxtb	r3, r3
 8001748:	f003 0301 	and.w	r3, r3, #1
 800174c:	b2db      	uxtb	r3, r3
 800174e:	461a      	mov	r2, r3
 8001750:	2100      	movs	r1, #0
 8001752:	4814      	ldr	r0, [pc, #80]	; (80017a4 <HAL_SevenSeg_DisplayNumber+0x6c>)
 8001754:	f000 fb57 	bl	8001e06 <MCAL_GPIO_WritePin>
    MCAL_GPIO_WritePin(SEVEN_SEGMEN_B_PORT, SEVEN_SEGMEN_B_PIN, READ_BIT(copy_Number, 2));
 8001758:	79fb      	ldrb	r3, [r7, #7]
 800175a:	109b      	asrs	r3, r3, #2
 800175c:	b2db      	uxtb	r3, r3
 800175e:	f003 0301 	and.w	r3, r3, #1
 8001762:	b2db      	uxtb	r3, r3
 8001764:	461a      	mov	r2, r3
 8001766:	2101      	movs	r1, #1
 8001768:	480e      	ldr	r0, [pc, #56]	; (80017a4 <HAL_SevenSeg_DisplayNumber+0x6c>)
 800176a:	f000 fb4c 	bl	8001e06 <MCAL_GPIO_WritePin>
    MCAL_GPIO_WritePin(SEVEN_SEGMEN_C_PORT, SEVEN_SEGMEN_C_PIN, READ_BIT(copy_Number, 1));
 800176e:	79fb      	ldrb	r3, [r7, #7]
 8001770:	105b      	asrs	r3, r3, #1
 8001772:	b2db      	uxtb	r3, r3
 8001774:	f003 0301 	and.w	r3, r3, #1
 8001778:	b2db      	uxtb	r3, r3
 800177a:	461a      	mov	r2, r3
 800177c:	2102      	movs	r1, #2
 800177e:	4809      	ldr	r0, [pc, #36]	; (80017a4 <HAL_SevenSeg_DisplayNumber+0x6c>)
 8001780:	f000 fb41 	bl	8001e06 <MCAL_GPIO_WritePin>
    MCAL_GPIO_WritePin(SEVEN_SEGMEN_D_PORT, SEVEN_SEGMEN_D_PIN, READ_BIT(copy_Number, 0));
 8001784:	79fb      	ldrb	r3, [r7, #7]
 8001786:	f003 0301 	and.w	r3, r3, #1
 800178a:	b2db      	uxtb	r3, r3
 800178c:	461a      	mov	r2, r3
 800178e:	2103      	movs	r1, #3
 8001790:	4804      	ldr	r0, [pc, #16]	; (80017a4 <HAL_SevenSeg_DisplayNumber+0x6c>)
 8001792:	f000 fb38 	bl	8001e06 <MCAL_GPIO_WritePin>

    Glob_u8DisplayedNumber = copy_Number;
 8001796:	4a04      	ldr	r2, [pc, #16]	; (80017a8 <HAL_SevenSeg_DisplayNumber+0x70>)
 8001798:	79fb      	ldrb	r3, [r7, #7]
 800179a:	7013      	strb	r3, [r2, #0]
}
 800179c:	bf00      	nop
 800179e:	3708      	adds	r7, #8
 80017a0:	46bd      	mov	sp, r7
 80017a2:	bd80      	pop	{r7, pc}
 80017a4:	40010800 	.word	0x40010800
 80017a8:	200000a0 	.word	0x200000a0

080017ac <HAL_SevenSeg_Increment>:
/**
 * @brief This function increments the number displayed on the display by one.
 * 
 */
void HAL_SevenSeg_Increment()
{
 80017ac:	b580      	push	{r7, lr}
 80017ae:	af00      	add	r7, sp, #0
    if(Glob_u8DisplayedNumber < 9)
 80017b0:	4b08      	ldr	r3, [pc, #32]	; (80017d4 <HAL_SevenSeg_Increment+0x28>)
 80017b2:	781b      	ldrb	r3, [r3, #0]
 80017b4:	2b08      	cmp	r3, #8
 80017b6:	d80a      	bhi.n	80017ce <HAL_SevenSeg_Increment+0x22>
    {
        Glob_u8DisplayedNumber++;
 80017b8:	4b06      	ldr	r3, [pc, #24]	; (80017d4 <HAL_SevenSeg_Increment+0x28>)
 80017ba:	781b      	ldrb	r3, [r3, #0]
 80017bc:	3301      	adds	r3, #1
 80017be:	b2da      	uxtb	r2, r3
 80017c0:	4b04      	ldr	r3, [pc, #16]	; (80017d4 <HAL_SevenSeg_Increment+0x28>)
 80017c2:	701a      	strb	r2, [r3, #0]
        
        HAL_SevenSeg_DisplayNumber(Glob_u8DisplayedNumber);
 80017c4:	4b03      	ldr	r3, [pc, #12]	; (80017d4 <HAL_SevenSeg_Increment+0x28>)
 80017c6:	781b      	ldrb	r3, [r3, #0]
 80017c8:	4618      	mov	r0, r3
 80017ca:	f7ff ffb5 	bl	8001738 <HAL_SevenSeg_DisplayNumber>
    }

}
 80017ce:	bf00      	nop
 80017d0:	bd80      	pop	{r7, pc}
 80017d2:	bf00      	nop
 80017d4:	200000a0 	.word	0x200000a0

080017d8 <HAL_SevenSeg_Decrement>:
/**
 * @brief This function decrements the number displayed on the display by one.
 * 
 */
void HAL_SevenSeg_Decrement()
{
 80017d8:	b580      	push	{r7, lr}
 80017da:	af00      	add	r7, sp, #0
    if(Glob_u8DisplayedNumber > 0)
 80017dc:	4b08      	ldr	r3, [pc, #32]	; (8001800 <HAL_SevenSeg_Decrement+0x28>)
 80017de:	781b      	ldrb	r3, [r3, #0]
 80017e0:	2b00      	cmp	r3, #0
 80017e2:	d00a      	beq.n	80017fa <HAL_SevenSeg_Decrement+0x22>
    {
        Glob_u8DisplayedNumber--;
 80017e4:	4b06      	ldr	r3, [pc, #24]	; (8001800 <HAL_SevenSeg_Decrement+0x28>)
 80017e6:	781b      	ldrb	r3, [r3, #0]
 80017e8:	3b01      	subs	r3, #1
 80017ea:	b2da      	uxtb	r2, r3
 80017ec:	4b04      	ldr	r3, [pc, #16]	; (8001800 <HAL_SevenSeg_Decrement+0x28>)
 80017ee:	701a      	strb	r2, [r3, #0]
        
        HAL_SevenSeg_DisplayNumber(Glob_u8DisplayedNumber);
 80017f0:	4b03      	ldr	r3, [pc, #12]	; (8001800 <HAL_SevenSeg_Decrement+0x28>)
 80017f2:	781b      	ldrb	r3, [r3, #0]
 80017f4:	4618      	mov	r0, r3
 80017f6:	f7ff ff9f 	bl	8001738 <HAL_SevenSeg_DisplayNumber>
    }

}
 80017fa:	bf00      	nop
 80017fc:	bd80      	pop	{r7, pc}
 80017fe:	bf00      	nop
 8001800:	200000a0 	.word	0x200000a0

08001804 <FIFO_init>:
 */

#include "FIFO_Buff.h"

eFIFO_status_t FIFO_init(sFIFO_Buf_t* fifo_buf, element_width* buf, uint32 capacity)
{
 8001804:	b480      	push	{r7}
 8001806:	b085      	sub	sp, #20
 8001808:	af00      	add	r7, sp, #0
 800180a:	60f8      	str	r0, [r7, #12]
 800180c:	60b9      	str	r1, [r7, #8]
 800180e:	607a      	str	r2, [r7, #4]
    /*Check if the buffer is valid*/
    if (!buf)
 8001810:	68bb      	ldr	r3, [r7, #8]
 8001812:	2b00      	cmp	r3, #0
 8001814:	d101      	bne.n	800181a <FIFO_init+0x16>
        return FIFO_NULL;
 8001816:	2303      	movs	r3, #3
 8001818:	e00f      	b.n	800183a <FIFO_init+0x36>
    
    /*Initialize the FIFO buffer*/
    fifo_buf->base = buf;
 800181a:	68fb      	ldr	r3, [r7, #12]
 800181c:	68ba      	ldr	r2, [r7, #8]
 800181e:	601a      	str	r2, [r3, #0]
    fifo_buf->head = buf;
 8001820:	68fb      	ldr	r3, [r7, #12]
 8001822:	68ba      	ldr	r2, [r7, #8]
 8001824:	605a      	str	r2, [r3, #4]
    fifo_buf->tail = buf;
 8001826:	68fb      	ldr	r3, [r7, #12]
 8001828:	68ba      	ldr	r2, [r7, #8]
 800182a:	609a      	str	r2, [r3, #8]
    fifo_buf->capacity = capacity;
 800182c:	68fb      	ldr	r3, [r7, #12]
 800182e:	687a      	ldr	r2, [r7, #4]
 8001830:	60da      	str	r2, [r3, #12]
    fifo_buf->size = 0;
 8001832:	68fb      	ldr	r3, [r7, #12]
 8001834:	2200      	movs	r2, #0
 8001836:	611a      	str	r2, [r3, #16]

    return FIFO_no_error;
 8001838:	2302      	movs	r3, #2
}
 800183a:	4618      	mov	r0, r3
 800183c:	3714      	adds	r7, #20
 800183e:	46bd      	mov	sp, r7
 8001840:	bc80      	pop	{r7}
 8001842:	4770      	bx	lr

08001844 <FIFO_enqueue>:

eFIFO_status_t FIFO_enqueue(sFIFO_Buf_t* fifo_buf, element_width item)
{
 8001844:	b480      	push	{r7}
 8001846:	b085      	sub	sp, #20
 8001848:	af00      	add	r7, sp, #0
 800184a:	60f8      	str	r0, [r7, #12]
 800184c:	1d3b      	adds	r3, r7, #4
 800184e:	e883 0006 	stmia.w	r3, {r1, r2}
    /*Check if the FIFO buffer is valid*/
    if (!fifo_buf || !fifo_buf->head || !fifo_buf->base || !fifo_buf->tail)
 8001852:	68fb      	ldr	r3, [r7, #12]
 8001854:	2b00      	cmp	r3, #0
 8001856:	d00b      	beq.n	8001870 <FIFO_enqueue+0x2c>
 8001858:	68fb      	ldr	r3, [r7, #12]
 800185a:	685b      	ldr	r3, [r3, #4]
 800185c:	2b00      	cmp	r3, #0
 800185e:	d007      	beq.n	8001870 <FIFO_enqueue+0x2c>
 8001860:	68fb      	ldr	r3, [r7, #12]
 8001862:	681b      	ldr	r3, [r3, #0]
 8001864:	2b00      	cmp	r3, #0
 8001866:	d003      	beq.n	8001870 <FIFO_enqueue+0x2c>
 8001868:	68fb      	ldr	r3, [r7, #12]
 800186a:	689b      	ldr	r3, [r3, #8]
 800186c:	2b00      	cmp	r3, #0
 800186e:	d101      	bne.n	8001874 <FIFO_enqueue+0x30>
        return FIFO_NULL;
 8001870:	2303      	movs	r3, #3
 8001872:	e02c      	b.n	80018ce <FIFO_enqueue+0x8a>
    
    /*Check if there is space left in the buffer*/
    if (fifo_buf->size >= fifo_buf->capacity)
 8001874:	68fb      	ldr	r3, [r7, #12]
 8001876:	691a      	ldr	r2, [r3, #16]
 8001878:	68fb      	ldr	r3, [r7, #12]
 800187a:	68db      	ldr	r3, [r3, #12]
 800187c:	429a      	cmp	r2, r3
 800187e:	d301      	bcc.n	8001884 <FIFO_enqueue+0x40>
        return FIFO_full;
 8001880:	2300      	movs	r3, #0
 8001882:	e024      	b.n	80018ce <FIFO_enqueue+0x8a>
    
    *(fifo_buf->head) = item;
 8001884:	68fb      	ldr	r3, [r7, #12]
 8001886:	685b      	ldr	r3, [r3, #4]
 8001888:	461a      	mov	r2, r3
 800188a:	1d3b      	adds	r3, r7, #4
 800188c:	6818      	ldr	r0, [r3, #0]
 800188e:	6010      	str	r0, [r2, #0]
 8001890:	791b      	ldrb	r3, [r3, #4]
 8001892:	7113      	strb	r3, [r2, #4]

    /*Check if the head is at the end of the buffer*/
    if (fifo_buf->head == (fifo_buf->base + (fifo_buf->capacity - 1) ))
 8001894:	68fb      	ldr	r3, [r7, #12]
 8001896:	6859      	ldr	r1, [r3, #4]
 8001898:	68fb      	ldr	r3, [r7, #12]
 800189a:	6818      	ldr	r0, [r3, #0]
 800189c:	68fb      	ldr	r3, [r7, #12]
 800189e:	68da      	ldr	r2, [r3, #12]
 80018a0:	4613      	mov	r3, r2
 80018a2:	009b      	lsls	r3, r3, #2
 80018a4:	4413      	add	r3, r2
 80018a6:	3b05      	subs	r3, #5
 80018a8:	4403      	add	r3, r0
 80018aa:	4299      	cmp	r1, r3
 80018ac:	d104      	bne.n	80018b8 <FIFO_enqueue+0x74>
        fifo_buf->head = fifo_buf->base;
 80018ae:	68fb      	ldr	r3, [r7, #12]
 80018b0:	681a      	ldr	r2, [r3, #0]
 80018b2:	68fb      	ldr	r3, [r7, #12]
 80018b4:	605a      	str	r2, [r3, #4]
 80018b6:	e004      	b.n	80018c2 <FIFO_enqueue+0x7e>
    else
        fifo_buf->head++;
 80018b8:	68fb      	ldr	r3, [r7, #12]
 80018ba:	685b      	ldr	r3, [r3, #4]
 80018bc:	1d5a      	adds	r2, r3, #5
 80018be:	68fb      	ldr	r3, [r7, #12]
 80018c0:	605a      	str	r2, [r3, #4]
    
    fifo_buf->size++;
 80018c2:	68fb      	ldr	r3, [r7, #12]
 80018c4:	691b      	ldr	r3, [r3, #16]
 80018c6:	1c5a      	adds	r2, r3, #1
 80018c8:	68fb      	ldr	r3, [r7, #12]
 80018ca:	611a      	str	r2, [r3, #16]

    return FIFO_no_error;
 80018cc:	2302      	movs	r3, #2
}
 80018ce:	4618      	mov	r0, r3
 80018d0:	3714      	adds	r7, #20
 80018d2:	46bd      	mov	sp, r7
 80018d4:	bc80      	pop	{r7}
 80018d6:	4770      	bx	lr

080018d8 <FIFO_dequeue>:

eFIFO_status_t FIFO_dequeue(sFIFO_Buf_t* fifo_buf, element_width* item)
{
 80018d8:	b480      	push	{r7}
 80018da:	b083      	sub	sp, #12
 80018dc:	af00      	add	r7, sp, #0
 80018de:	6078      	str	r0, [r7, #4]
 80018e0:	6039      	str	r1, [r7, #0]
    /*Check if the FIFO buffer is valid*/
    if (!fifo_buf || !fifo_buf->head || !fifo_buf->base || !fifo_buf->tail)
 80018e2:	687b      	ldr	r3, [r7, #4]
 80018e4:	2b00      	cmp	r3, #0
 80018e6:	d00b      	beq.n	8001900 <FIFO_dequeue+0x28>
 80018e8:	687b      	ldr	r3, [r7, #4]
 80018ea:	685b      	ldr	r3, [r3, #4]
 80018ec:	2b00      	cmp	r3, #0
 80018ee:	d007      	beq.n	8001900 <FIFO_dequeue+0x28>
 80018f0:	687b      	ldr	r3, [r7, #4]
 80018f2:	681b      	ldr	r3, [r3, #0]
 80018f4:	2b00      	cmp	r3, #0
 80018f6:	d003      	beq.n	8001900 <FIFO_dequeue+0x28>
 80018f8:	687b      	ldr	r3, [r7, #4]
 80018fa:	689b      	ldr	r3, [r3, #8]
 80018fc:	2b00      	cmp	r3, #0
 80018fe:	d101      	bne.n	8001904 <FIFO_dequeue+0x2c>
        return FIFO_NULL;
 8001900:	2303      	movs	r3, #3
 8001902:	e029      	b.n	8001958 <FIFO_dequeue+0x80>
    
    /*Check if the buffer is empty*/
    if (fifo_buf->size == 0)
 8001904:	687b      	ldr	r3, [r7, #4]
 8001906:	691b      	ldr	r3, [r3, #16]
 8001908:	2b00      	cmp	r3, #0
 800190a:	d101      	bne.n	8001910 <FIFO_dequeue+0x38>
        return FIFO_empty;
 800190c:	2301      	movs	r3, #1
 800190e:	e023      	b.n	8001958 <FIFO_dequeue+0x80>
    
    *item = *(fifo_buf->tail);
 8001910:	687b      	ldr	r3, [r7, #4]
 8001912:	689a      	ldr	r2, [r3, #8]
 8001914:	683b      	ldr	r3, [r7, #0]
 8001916:	6811      	ldr	r1, [r2, #0]
 8001918:	6019      	str	r1, [r3, #0]
 800191a:	7912      	ldrb	r2, [r2, #4]
 800191c:	711a      	strb	r2, [r3, #4]

    /*Check if the tail is at the end of the buffer*/
    if (fifo_buf->tail == (fifo_buf->base + (fifo_buf->capacity - 1)))
 800191e:	687b      	ldr	r3, [r7, #4]
 8001920:	6899      	ldr	r1, [r3, #8]
 8001922:	687b      	ldr	r3, [r7, #4]
 8001924:	6818      	ldr	r0, [r3, #0]
 8001926:	687b      	ldr	r3, [r7, #4]
 8001928:	68da      	ldr	r2, [r3, #12]
 800192a:	4613      	mov	r3, r2
 800192c:	009b      	lsls	r3, r3, #2
 800192e:	4413      	add	r3, r2
 8001930:	3b05      	subs	r3, #5
 8001932:	4403      	add	r3, r0
 8001934:	4299      	cmp	r1, r3
 8001936:	d104      	bne.n	8001942 <FIFO_dequeue+0x6a>
        fifo_buf->tail = fifo_buf->base;
 8001938:	687b      	ldr	r3, [r7, #4]
 800193a:	681a      	ldr	r2, [r3, #0]
 800193c:	687b      	ldr	r3, [r7, #4]
 800193e:	609a      	str	r2, [r3, #8]
 8001940:	e004      	b.n	800194c <FIFO_dequeue+0x74>
    else
        fifo_buf->tail++;
 8001942:	687b      	ldr	r3, [r7, #4]
 8001944:	689b      	ldr	r3, [r3, #8]
 8001946:	1d5a      	adds	r2, r3, #5
 8001948:	687b      	ldr	r3, [r7, #4]
 800194a:	609a      	str	r2, [r3, #8]

    fifo_buf->size--;
 800194c:	687b      	ldr	r3, [r7, #4]
 800194e:	691b      	ldr	r3, [r3, #16]
 8001950:	1e5a      	subs	r2, r3, #1
 8001952:	687b      	ldr	r3, [r7, #4]
 8001954:	611a      	str	r2, [r3, #16]

    return FIFO_no_error;
 8001956:	2302      	movs	r3, #2
 8001958:	4618      	mov	r0, r3
 800195a:	370c      	adds	r7, #12
 800195c:	46bd      	mov	sp, r7
 800195e:	bc80      	pop	{r7}
 8001960:	4770      	bx	lr
	...

08001964 <MCAL_AFIO_EXTI_Init>:
* Note			:   Stm32F103C6 MCU has GPIO A,B,C,D,E Modules,
* 				:	But LQFP48 Package has only GPIO A,B,PART of C/D exported as external PINS from the MCU.
====================================================================================================================
*/
void MCAL_AFIO_EXTI_Init(uint8 EXTI_Number, uint8 EXTI_Port)
{
 8001964:	b480      	push	{r7}
 8001966:	b085      	sub	sp, #20
 8001968:	af00      	add	r7, sp, #0
 800196a:	4603      	mov	r3, r0
 800196c:	460a      	mov	r2, r1
 800196e:	71fb      	strb	r3, [r7, #7]
 8001970:	4613      	mov	r3, r2
 8001972:	71bb      	strb	r3, [r7, #6]
    uint8 CR_Index = EXTI_Number / 4;
 8001974:	79fb      	ldrb	r3, [r7, #7]
 8001976:	089b      	lsrs	r3, r3, #2
 8001978:	73fb      	strb	r3, [r7, #15]
    uint8 CR_Shift = (EXTI_Number % 4) * 4;
 800197a:	79fb      	ldrb	r3, [r7, #7]
 800197c:	f003 0303 	and.w	r3, r3, #3
 8001980:	b2db      	uxtb	r3, r3
 8001982:	009b      	lsls	r3, r3, #2
 8001984:	73bb      	strb	r3, [r7, #14]

    AFIO->EXTICR[CR_Index] = (AFIO->EXTICR[CR_Index] & ~(0xF << CR_Shift)) | (EXTI_Port << CR_Shift); 
 8001986:	4a0d      	ldr	r2, [pc, #52]	; (80019bc <MCAL_AFIO_EXTI_Init+0x58>)
 8001988:	7bfb      	ldrb	r3, [r7, #15]
 800198a:	3302      	adds	r3, #2
 800198c:	f852 3023 	ldr.w	r3, [r2, r3, lsl #2]
 8001990:	7bba      	ldrb	r2, [r7, #14]
 8001992:	210f      	movs	r1, #15
 8001994:	fa01 f202 	lsl.w	r2, r1, r2
 8001998:	43d2      	mvns	r2, r2
 800199a:	401a      	ands	r2, r3
 800199c:	79b9      	ldrb	r1, [r7, #6]
 800199e:	7bbb      	ldrb	r3, [r7, #14]
 80019a0:	fa01 f303 	lsl.w	r3, r1, r3
 80019a4:	4618      	mov	r0, r3
 80019a6:	4905      	ldr	r1, [pc, #20]	; (80019bc <MCAL_AFIO_EXTI_Init+0x58>)
 80019a8:	7bfb      	ldrb	r3, [r7, #15]
 80019aa:	4302      	orrs	r2, r0
 80019ac:	3302      	adds	r3, #2
 80019ae:	f841 2023 	str.w	r2, [r1, r3, lsl #2]
}
 80019b2:	bf00      	nop
 80019b4:	3714      	adds	r7, #20
 80019b6:	46bd      	mov	sp, r7
 80019b8:	bc80      	pop	{r7}
 80019ba:	4770      	bx	lr
 80019bc:	40010000 	.word	0x40010000

080019c0 <MCAL_EXTI_Enable>:
* @return_value :   none.
* Note			:   none.
======================================================================================================================
*/
void MCAL_EXTI_Enable(EXTI_config_t* EXTI_Config)
{
 80019c0:	b580      	push	{r7, lr}
 80019c2:	b084      	sub	sp, #16
 80019c4:	af00      	add	r7, sp, #0
 80019c6:	6078      	str	r0, [r7, #4]
    /*Configure the GPIO Pin to be alternative function input (Floating input)*/
	GPIO_Pin_Config_t config;
    config.pinNumber = EXTI_Config->PinConfig.GPIO_pinNumber;
 80019c8:	687b      	ldr	r3, [r7, #4]
 80019ca:	7a1b      	ldrb	r3, [r3, #8]
 80019cc:	b29b      	uxth	r3, r3
 80019ce:	81bb      	strh	r3, [r7, #12]
    config.pinMode = GPIO_MODE_INPUT_FLOATING;
 80019d0:	2304      	movs	r3, #4
 80019d2:	81fb      	strh	r3, [r7, #14]
    MCAL_GPIO_Init(EXTI_Config->PinConfig.GPIO_PORT, &config);
 80019d4:	687b      	ldr	r3, [r7, #4]
 80019d6:	685b      	ldr	r3, [r3, #4]
 80019d8:	f107 020c 	add.w	r2, r7, #12
 80019dc:	4611      	mov	r1, r2
 80019de:	4618      	mov	r0, r3
 80019e0:	f000 f99e 	bl	8001d20 <MCAL_GPIO_Init>

    /*Map the pin to the EXTI line through AFIO module*/
    MCAL_AFIO_EXTI_Init(EXTI_Config->PinConfig.EXTI_lineNumber, EXTI_Config->PinConfig.AFIO_Port_config);
 80019e4:	687b      	ldr	r3, [r7, #4]
 80019e6:	781a      	ldrb	r2, [r3, #0]
 80019e8:	687b      	ldr	r3, [r7, #4]
 80019ea:	7a5b      	ldrb	r3, [r3, #9]
 80019ec:	4619      	mov	r1, r3
 80019ee:	4610      	mov	r0, r2
 80019f0:	f7ff ffb8 	bl	8001964 <MCAL_AFIO_EXTI_Init>

    /*Clear the rising and falling edge triggers*/
    CLEAR_BIT(EXTI->RTSR, EXTI_Config->PinConfig.EXTI_lineNumber);
 80019f4:	4b3b      	ldr	r3, [pc, #236]	; (8001ae4 <MCAL_EXTI_Enable+0x124>)
 80019f6:	689b      	ldr	r3, [r3, #8]
 80019f8:	687a      	ldr	r2, [r7, #4]
 80019fa:	7812      	ldrb	r2, [r2, #0]
 80019fc:	4611      	mov	r1, r2
 80019fe:	2201      	movs	r2, #1
 8001a00:	408a      	lsls	r2, r1
 8001a02:	43d2      	mvns	r2, r2
 8001a04:	4611      	mov	r1, r2
 8001a06:	4a37      	ldr	r2, [pc, #220]	; (8001ae4 <MCAL_EXTI_Enable+0x124>)
 8001a08:	400b      	ands	r3, r1
 8001a0a:	6093      	str	r3, [r2, #8]
    CLEAR_BIT(EXTI->FTSR, EXTI_Config->PinConfig.EXTI_lineNumber);
 8001a0c:	4b35      	ldr	r3, [pc, #212]	; (8001ae4 <MCAL_EXTI_Enable+0x124>)
 8001a0e:	68db      	ldr	r3, [r3, #12]
 8001a10:	687a      	ldr	r2, [r7, #4]
 8001a12:	7812      	ldrb	r2, [r2, #0]
 8001a14:	4611      	mov	r1, r2
 8001a16:	2201      	movs	r2, #1
 8001a18:	408a      	lsls	r2, r1
 8001a1a:	43d2      	mvns	r2, r2
 8001a1c:	4611      	mov	r1, r2
 8001a1e:	4a31      	ldr	r2, [pc, #196]	; (8001ae4 <MCAL_EXTI_Enable+0x124>)
 8001a20:	400b      	ands	r3, r1
 8001a22:	60d3      	str	r3, [r2, #12]

    /*Configure the triggering edge of the interrupt*/
    if(EXTI_Config->EXTI_Trigger_Mode == EXTI_TRIGGER_RISING_EDGE ||
 8001a24:	687b      	ldr	r3, [r7, #4]
 8001a26:	7b1b      	ldrb	r3, [r3, #12]
 8001a28:	2b00      	cmp	r3, #0
 8001a2a:	d003      	beq.n	8001a34 <MCAL_EXTI_Enable+0x74>
       EXTI_Config->EXTI_Trigger_Mode == EXTI_TRIGGER_BOTH_EDGES)
 8001a2c:	687b      	ldr	r3, [r7, #4]
 8001a2e:	7b1b      	ldrb	r3, [r3, #12]
    if(EXTI_Config->EXTI_Trigger_Mode == EXTI_TRIGGER_RISING_EDGE ||
 8001a30:	2b02      	cmp	r3, #2
 8001a32:	d10a      	bne.n	8001a4a <MCAL_EXTI_Enable+0x8a>
    {
        SET_BIT(EXTI->RTSR, EXTI_Config->PinConfig.EXTI_lineNumber);
 8001a34:	4b2b      	ldr	r3, [pc, #172]	; (8001ae4 <MCAL_EXTI_Enable+0x124>)
 8001a36:	689b      	ldr	r3, [r3, #8]
 8001a38:	687a      	ldr	r2, [r7, #4]
 8001a3a:	7812      	ldrb	r2, [r2, #0]
 8001a3c:	4611      	mov	r1, r2
 8001a3e:	2201      	movs	r2, #1
 8001a40:	408a      	lsls	r2, r1
 8001a42:	4611      	mov	r1, r2
 8001a44:	4a27      	ldr	r2, [pc, #156]	; (8001ae4 <MCAL_EXTI_Enable+0x124>)
 8001a46:	430b      	orrs	r3, r1
 8001a48:	6093      	str	r3, [r2, #8]
    }

    if(EXTI_Config->EXTI_Trigger_Mode == EXTI_TRIGGER_FALLING_EDGE ||
 8001a4a:	687b      	ldr	r3, [r7, #4]
 8001a4c:	7b1b      	ldrb	r3, [r3, #12]
 8001a4e:	2b01      	cmp	r3, #1
 8001a50:	d003      	beq.n	8001a5a <MCAL_EXTI_Enable+0x9a>
       EXTI_Config->EXTI_Trigger_Mode == EXTI_TRIGGER_BOTH_EDGES)
 8001a52:	687b      	ldr	r3, [r7, #4]
 8001a54:	7b1b      	ldrb	r3, [r3, #12]
    if(EXTI_Config->EXTI_Trigger_Mode == EXTI_TRIGGER_FALLING_EDGE ||
 8001a56:	2b02      	cmp	r3, #2
 8001a58:	d10a      	bne.n	8001a70 <MCAL_EXTI_Enable+0xb0>
    {
        SET_BIT( EXTI->FTSR, EXTI_Config->PinConfig.EXTI_lineNumber);
 8001a5a:	4b22      	ldr	r3, [pc, #136]	; (8001ae4 <MCAL_EXTI_Enable+0x124>)
 8001a5c:	68db      	ldr	r3, [r3, #12]
 8001a5e:	687a      	ldr	r2, [r7, #4]
 8001a60:	7812      	ldrb	r2, [r2, #0]
 8001a62:	4611      	mov	r1, r2
 8001a64:	2201      	movs	r2, #1
 8001a66:	408a      	lsls	r2, r1
 8001a68:	4611      	mov	r1, r2
 8001a6a:	4a1e      	ldr	r2, [pc, #120]	; (8001ae4 <MCAL_EXTI_Enable+0x124>)
 8001a6c:	430b      	orrs	r3, r1
 8001a6e:	60d3      	str	r3, [r2, #12]
    }

    /*Set the priority of the interrupt in NVIC*/
    MCAL_NVIC_SetPriority(EXTI_Config->PinConfig.EXTI_IVT_index, EXTI_Config->EXTI_Priority);
 8001a70:	687b      	ldr	r3, [r7, #4]
 8001a72:	7a9a      	ldrb	r2, [r3, #10]
 8001a74:	687b      	ldr	r3, [r7, #4]
 8001a76:	7b9b      	ldrb	r3, [r3, #14]
 8001a78:	4619      	mov	r1, r3
 8001a7a:	4610      	mov	r0, r2
 8001a7c:	f000 fa26 	bl	8001ecc <MCAL_NVIC_SetPriority>

    /*Set the callback function*/
    GP_callback_func[EXTI_Config->PinConfig.EXTI_lineNumber] = EXTI_Config->P_callback_func;
 8001a80:	687b      	ldr	r3, [r7, #4]
 8001a82:	781b      	ldrb	r3, [r3, #0]
 8001a84:	4619      	mov	r1, r3
 8001a86:	687b      	ldr	r3, [r7, #4]
 8001a88:	691b      	ldr	r3, [r3, #16]
 8001a8a:	4a17      	ldr	r2, [pc, #92]	; (8001ae8 <MCAL_EXTI_Enable+0x128>)
 8001a8c:	f842 3021 	str.w	r3, [r2, r1, lsl #2]

    if(EXTI_Config->EXTI_En == EXTI_ENABLE)
 8001a90:	687b      	ldr	r3, [r7, #4]
 8001a92:	7b5b      	ldrb	r3, [r3, #13]
 8001a94:	2b01      	cmp	r3, #1
 8001a96:	d110      	bne.n	8001aba <MCAL_EXTI_Enable+0xfa>
    {
        /*Enable the interrupt mask in the EXTI peripheral*/
        SET_BIT(EXTI->IMR, EXTI_Config->PinConfig.EXTI_lineNumber);
 8001a98:	4b12      	ldr	r3, [pc, #72]	; (8001ae4 <MCAL_EXTI_Enable+0x124>)
 8001a9a:	681b      	ldr	r3, [r3, #0]
 8001a9c:	687a      	ldr	r2, [r7, #4]
 8001a9e:	7812      	ldrb	r2, [r2, #0]
 8001aa0:	4611      	mov	r1, r2
 8001aa2:	2201      	movs	r2, #1
 8001aa4:	408a      	lsls	r2, r1
 8001aa6:	4611      	mov	r1, r2
 8001aa8:	4a0e      	ldr	r2, [pc, #56]	; (8001ae4 <MCAL_EXTI_Enable+0x124>)
 8001aaa:	430b      	orrs	r3, r1
 8001aac:	6013      	str	r3, [r2, #0]

        /*Enable the interrupt mask in the NVIC peripheral*/
        MCAL_NVIC_EnableIRQ(EXTI_Config->PinConfig.EXTI_IVT_index);
 8001aae:	687b      	ldr	r3, [r7, #4]
 8001ab0:	7a9b      	ldrb	r3, [r3, #10]
 8001ab2:	4618      	mov	r0, r3
 8001ab4:	f000 f9cb 	bl	8001e4e <MCAL_NVIC_EnableIRQ>
        CLEAR_BIT(EXTI->IMR, EXTI_Config->PinConfig.EXTI_lineNumber);

        /*Disable the interrupt mask in the NVIC peripheral*/
        MCAL_NVIC_DisableIRQ(EXTI_Config->PinConfig.EXTI_IVT_index);
    }
}
 8001ab8:	e010      	b.n	8001adc <MCAL_EXTI_Enable+0x11c>
        CLEAR_BIT(EXTI->IMR, EXTI_Config->PinConfig.EXTI_lineNumber);
 8001aba:	4b0a      	ldr	r3, [pc, #40]	; (8001ae4 <MCAL_EXTI_Enable+0x124>)
 8001abc:	681b      	ldr	r3, [r3, #0]
 8001abe:	687a      	ldr	r2, [r7, #4]
 8001ac0:	7812      	ldrb	r2, [r2, #0]
 8001ac2:	4611      	mov	r1, r2
 8001ac4:	2201      	movs	r2, #1
 8001ac6:	408a      	lsls	r2, r1
 8001ac8:	43d2      	mvns	r2, r2
 8001aca:	4611      	mov	r1, r2
 8001acc:	4a05      	ldr	r2, [pc, #20]	; (8001ae4 <MCAL_EXTI_Enable+0x124>)
 8001ace:	400b      	ands	r3, r1
 8001ad0:	6013      	str	r3, [r2, #0]
        MCAL_NVIC_DisableIRQ(EXTI_Config->PinConfig.EXTI_IVT_index);
 8001ad2:	687b      	ldr	r3, [r7, #4]
 8001ad4:	7a9b      	ldrb	r3, [r3, #10]
 8001ad6:	4618      	mov	r0, r3
 8001ad8:	f000 f9dc 	bl	8001e94 <MCAL_NVIC_DisableIRQ>
}
 8001adc:	bf00      	nop
 8001ade:	3710      	adds	r7, #16
 8001ae0:	46bd      	mov	sp, r7
 8001ae2:	bd80      	pop	{r7, pc}
 8001ae4:	40010400 	.word	0x40010400
 8001ae8:	200000f0 	.word	0x200000f0

08001aec <EXTI0_IRQHandler>:
*===============================================
*/

/*-----------@defgroup EXTI ISR------------------------ */
void EXTI0_IRQHandler(void)
{
 8001aec:	b580      	push	{r7, lr}
 8001aee:	af00      	add	r7, sp, #0
    /*Clear the pending bit in EXTI_PR */
    SET_BIT(EXTI->PR, 0);
 8001af0:	4b05      	ldr	r3, [pc, #20]	; (8001b08 <EXTI0_IRQHandler+0x1c>)
 8001af2:	695b      	ldr	r3, [r3, #20]
 8001af4:	4a04      	ldr	r2, [pc, #16]	; (8001b08 <EXTI0_IRQHandler+0x1c>)
 8001af6:	f043 0301 	orr.w	r3, r3, #1
 8001afa:	6153      	str	r3, [r2, #20]
    
    /*Jump to the ISR*/
    GP_callback_func[0]();
 8001afc:	4b03      	ldr	r3, [pc, #12]	; (8001b0c <EXTI0_IRQHandler+0x20>)
 8001afe:	681b      	ldr	r3, [r3, #0]
 8001b00:	4798      	blx	r3
}
 8001b02:	bf00      	nop
 8001b04:	bd80      	pop	{r7, pc}
 8001b06:	bf00      	nop
 8001b08:	40010400 	.word	0x40010400
 8001b0c:	200000f0 	.word	0x200000f0

08001b10 <EXTI1_IRQHandler>:

void EXTI1_IRQHandler(void)
{
 8001b10:	b580      	push	{r7, lr}
 8001b12:	af00      	add	r7, sp, #0
    /*Clear the pending bit in EXTI_PR */
    SET_BIT(EXTI->PR, 1);
 8001b14:	4b05      	ldr	r3, [pc, #20]	; (8001b2c <EXTI1_IRQHandler+0x1c>)
 8001b16:	695b      	ldr	r3, [r3, #20]
 8001b18:	4a04      	ldr	r2, [pc, #16]	; (8001b2c <EXTI1_IRQHandler+0x1c>)
 8001b1a:	f043 0302 	orr.w	r3, r3, #2
 8001b1e:	6153      	str	r3, [r2, #20]
    
    /*Jump to the ISR*/
    GP_callback_func[1]();
 8001b20:	4b03      	ldr	r3, [pc, #12]	; (8001b30 <EXTI1_IRQHandler+0x20>)
 8001b22:	685b      	ldr	r3, [r3, #4]
 8001b24:	4798      	blx	r3
}
 8001b26:	bf00      	nop
 8001b28:	bd80      	pop	{r7, pc}
 8001b2a:	bf00      	nop
 8001b2c:	40010400 	.word	0x40010400
 8001b30:	200000f0 	.word	0x200000f0

08001b34 <EXTI2_IRQHandler>:

void EXTI2_IRQHandler(void)
{
 8001b34:	b580      	push	{r7, lr}
 8001b36:	af00      	add	r7, sp, #0
    /*Clear the pending bit in EXTI_PR */
    SET_BIT(EXTI->PR, 2);
 8001b38:	4b05      	ldr	r3, [pc, #20]	; (8001b50 <EXTI2_IRQHandler+0x1c>)
 8001b3a:	695b      	ldr	r3, [r3, #20]
 8001b3c:	4a04      	ldr	r2, [pc, #16]	; (8001b50 <EXTI2_IRQHandler+0x1c>)
 8001b3e:	f043 0304 	orr.w	r3, r3, #4
 8001b42:	6153      	str	r3, [r2, #20]
    
    /*Jump to the ISR*/
    GP_callback_func[2]();
 8001b44:	4b03      	ldr	r3, [pc, #12]	; (8001b54 <EXTI2_IRQHandler+0x20>)
 8001b46:	689b      	ldr	r3, [r3, #8]
 8001b48:	4798      	blx	r3
}
 8001b4a:	bf00      	nop
 8001b4c:	bd80      	pop	{r7, pc}
 8001b4e:	bf00      	nop
 8001b50:	40010400 	.word	0x40010400
 8001b54:	200000f0 	.word	0x200000f0

08001b58 <EXTI3_IRQHandler>:

void EXTI3_IRQHandler(void)
{
 8001b58:	b580      	push	{r7, lr}
 8001b5a:	af00      	add	r7, sp, #0
    /*Clear the pending bit in EXTI_PR */
    SET_BIT(EXTI->PR, 3);
 8001b5c:	4b05      	ldr	r3, [pc, #20]	; (8001b74 <EXTI3_IRQHandler+0x1c>)
 8001b5e:	695b      	ldr	r3, [r3, #20]
 8001b60:	4a04      	ldr	r2, [pc, #16]	; (8001b74 <EXTI3_IRQHandler+0x1c>)
 8001b62:	f043 0308 	orr.w	r3, r3, #8
 8001b66:	6153      	str	r3, [r2, #20]
    
    /*Jump to the ISR*/
    GP_callback_func[3]();
 8001b68:	4b03      	ldr	r3, [pc, #12]	; (8001b78 <EXTI3_IRQHandler+0x20>)
 8001b6a:	68db      	ldr	r3, [r3, #12]
 8001b6c:	4798      	blx	r3
}
 8001b6e:	bf00      	nop
 8001b70:	bd80      	pop	{r7, pc}
 8001b72:	bf00      	nop
 8001b74:	40010400 	.word	0x40010400
 8001b78:	200000f0 	.word	0x200000f0

08001b7c <EXTI4_IRQHandler>:

void EXTI4_IRQHandler(void)
{
 8001b7c:	b580      	push	{r7, lr}
 8001b7e:	af00      	add	r7, sp, #0
    /*Clear the pending bit in EXTI_PR */
    SET_BIT(EXTI->PR, 4);
 8001b80:	4b05      	ldr	r3, [pc, #20]	; (8001b98 <EXTI4_IRQHandler+0x1c>)
 8001b82:	695b      	ldr	r3, [r3, #20]
 8001b84:	4a04      	ldr	r2, [pc, #16]	; (8001b98 <EXTI4_IRQHandler+0x1c>)
 8001b86:	f043 0310 	orr.w	r3, r3, #16
 8001b8a:	6153      	str	r3, [r2, #20]
    
    /*Jump to the ISR*/
    GP_callback_func[4]();
 8001b8c:	4b03      	ldr	r3, [pc, #12]	; (8001b9c <EXTI4_IRQHandler+0x20>)
 8001b8e:	691b      	ldr	r3, [r3, #16]
 8001b90:	4798      	blx	r3
}
 8001b92:	bf00      	nop
 8001b94:	bd80      	pop	{r7, pc}
 8001b96:	bf00      	nop
 8001b98:	40010400 	.word	0x40010400
 8001b9c:	200000f0 	.word	0x200000f0

08001ba0 <EXTI9_5_IRQHandler>:

void EXTI9_5_IRQHandler(void)
{
 8001ba0:	b580      	push	{r7, lr}
 8001ba2:	af00      	add	r7, sp, #0
    if(READ_BIT(EXTI->PR, 5) == 1){SET_BIT(EXTI->PR, 5); GP_callback_func[5]();}
 8001ba4:	4b28      	ldr	r3, [pc, #160]	; (8001c48 <EXTI9_5_IRQHandler+0xa8>)
 8001ba6:	695b      	ldr	r3, [r3, #20]
 8001ba8:	095b      	lsrs	r3, r3, #5
 8001baa:	f003 0301 	and.w	r3, r3, #1
 8001bae:	2b01      	cmp	r3, #1
 8001bb0:	d108      	bne.n	8001bc4 <EXTI9_5_IRQHandler+0x24>
 8001bb2:	4b25      	ldr	r3, [pc, #148]	; (8001c48 <EXTI9_5_IRQHandler+0xa8>)
 8001bb4:	695b      	ldr	r3, [r3, #20]
 8001bb6:	4a24      	ldr	r2, [pc, #144]	; (8001c48 <EXTI9_5_IRQHandler+0xa8>)
 8001bb8:	f043 0320 	orr.w	r3, r3, #32
 8001bbc:	6153      	str	r3, [r2, #20]
 8001bbe:	4b23      	ldr	r3, [pc, #140]	; (8001c4c <EXTI9_5_IRQHandler+0xac>)
 8001bc0:	695b      	ldr	r3, [r3, #20]
 8001bc2:	4798      	blx	r3
    if(READ_BIT(EXTI->PR, 6) == 1){SET_BIT(EXTI->PR, 6); GP_callback_func[6]();}
 8001bc4:	4b20      	ldr	r3, [pc, #128]	; (8001c48 <EXTI9_5_IRQHandler+0xa8>)
 8001bc6:	695b      	ldr	r3, [r3, #20]
 8001bc8:	099b      	lsrs	r3, r3, #6
 8001bca:	f003 0301 	and.w	r3, r3, #1
 8001bce:	2b01      	cmp	r3, #1
 8001bd0:	d108      	bne.n	8001be4 <EXTI9_5_IRQHandler+0x44>
 8001bd2:	4b1d      	ldr	r3, [pc, #116]	; (8001c48 <EXTI9_5_IRQHandler+0xa8>)
 8001bd4:	695b      	ldr	r3, [r3, #20]
 8001bd6:	4a1c      	ldr	r2, [pc, #112]	; (8001c48 <EXTI9_5_IRQHandler+0xa8>)
 8001bd8:	f043 0340 	orr.w	r3, r3, #64	; 0x40
 8001bdc:	6153      	str	r3, [r2, #20]
 8001bde:	4b1b      	ldr	r3, [pc, #108]	; (8001c4c <EXTI9_5_IRQHandler+0xac>)
 8001be0:	699b      	ldr	r3, [r3, #24]
 8001be2:	4798      	blx	r3
    if(READ_BIT(EXTI->PR, 7) == 1){SET_BIT(EXTI->PR, 7); GP_callback_func[7]();}
 8001be4:	4b18      	ldr	r3, [pc, #96]	; (8001c48 <EXTI9_5_IRQHandler+0xa8>)
 8001be6:	695b      	ldr	r3, [r3, #20]
 8001be8:	09db      	lsrs	r3, r3, #7
 8001bea:	f003 0301 	and.w	r3, r3, #1
 8001bee:	2b01      	cmp	r3, #1
 8001bf0:	d108      	bne.n	8001c04 <EXTI9_5_IRQHandler+0x64>
 8001bf2:	4b15      	ldr	r3, [pc, #84]	; (8001c48 <EXTI9_5_IRQHandler+0xa8>)
 8001bf4:	695b      	ldr	r3, [r3, #20]
 8001bf6:	4a14      	ldr	r2, [pc, #80]	; (8001c48 <EXTI9_5_IRQHandler+0xa8>)
 8001bf8:	f043 0380 	orr.w	r3, r3, #128	; 0x80
 8001bfc:	6153      	str	r3, [r2, #20]
 8001bfe:	4b13      	ldr	r3, [pc, #76]	; (8001c4c <EXTI9_5_IRQHandler+0xac>)
 8001c00:	69db      	ldr	r3, [r3, #28]
 8001c02:	4798      	blx	r3
    if(READ_BIT(EXTI->PR, 8) == 1){SET_BIT(EXTI->PR, 8); GP_callback_func[8]();}
 8001c04:	4b10      	ldr	r3, [pc, #64]	; (8001c48 <EXTI9_5_IRQHandler+0xa8>)
 8001c06:	695b      	ldr	r3, [r3, #20]
 8001c08:	0a1b      	lsrs	r3, r3, #8
 8001c0a:	f003 0301 	and.w	r3, r3, #1
 8001c0e:	2b01      	cmp	r3, #1
 8001c10:	d108      	bne.n	8001c24 <EXTI9_5_IRQHandler+0x84>
 8001c12:	4b0d      	ldr	r3, [pc, #52]	; (8001c48 <EXTI9_5_IRQHandler+0xa8>)
 8001c14:	695b      	ldr	r3, [r3, #20]
 8001c16:	4a0c      	ldr	r2, [pc, #48]	; (8001c48 <EXTI9_5_IRQHandler+0xa8>)
 8001c18:	f443 7380 	orr.w	r3, r3, #256	; 0x100
 8001c1c:	6153      	str	r3, [r2, #20]
 8001c1e:	4b0b      	ldr	r3, [pc, #44]	; (8001c4c <EXTI9_5_IRQHandler+0xac>)
 8001c20:	6a1b      	ldr	r3, [r3, #32]
 8001c22:	4798      	blx	r3
    if(READ_BIT(EXTI->PR, 9) == 1){SET_BIT(EXTI->PR, 9); GP_callback_func[9]();}
 8001c24:	4b08      	ldr	r3, [pc, #32]	; (8001c48 <EXTI9_5_IRQHandler+0xa8>)
 8001c26:	695b      	ldr	r3, [r3, #20]
 8001c28:	0a5b      	lsrs	r3, r3, #9
 8001c2a:	f003 0301 	and.w	r3, r3, #1
 8001c2e:	2b01      	cmp	r3, #1
 8001c30:	d108      	bne.n	8001c44 <EXTI9_5_IRQHandler+0xa4>
 8001c32:	4b05      	ldr	r3, [pc, #20]	; (8001c48 <EXTI9_5_IRQHandler+0xa8>)
 8001c34:	695b      	ldr	r3, [r3, #20]
 8001c36:	4a04      	ldr	r2, [pc, #16]	; (8001c48 <EXTI9_5_IRQHandler+0xa8>)
 8001c38:	f443 7300 	orr.w	r3, r3, #512	; 0x200
 8001c3c:	6153      	str	r3, [r2, #20]
 8001c3e:	4b03      	ldr	r3, [pc, #12]	; (8001c4c <EXTI9_5_IRQHandler+0xac>)
 8001c40:	6a5b      	ldr	r3, [r3, #36]	; 0x24
 8001c42:	4798      	blx	r3
}
 8001c44:	bf00      	nop
 8001c46:	bd80      	pop	{r7, pc}
 8001c48:	40010400 	.word	0x40010400
 8001c4c:	200000f0 	.word	0x200000f0

08001c50 <EXTI15_10_IRQHandler>:

void EXTI15_10_IRQHandler(void)
{
 8001c50:	b580      	push	{r7, lr}
 8001c52:	af00      	add	r7, sp, #0
    if(READ_BIT(EXTI->PR, 10) == 1){SET_BIT(EXTI->PR, 10); GP_callback_func[10]();}
 8001c54:	4b30      	ldr	r3, [pc, #192]	; (8001d18 <EXTI15_10_IRQHandler+0xc8>)
 8001c56:	695b      	ldr	r3, [r3, #20]
 8001c58:	0a9b      	lsrs	r3, r3, #10
 8001c5a:	f003 0301 	and.w	r3, r3, #1
 8001c5e:	2b01      	cmp	r3, #1
 8001c60:	d108      	bne.n	8001c74 <EXTI15_10_IRQHandler+0x24>
 8001c62:	4b2d      	ldr	r3, [pc, #180]	; (8001d18 <EXTI15_10_IRQHandler+0xc8>)
 8001c64:	695b      	ldr	r3, [r3, #20]
 8001c66:	4a2c      	ldr	r2, [pc, #176]	; (8001d18 <EXTI15_10_IRQHandler+0xc8>)
 8001c68:	f443 6380 	orr.w	r3, r3, #1024	; 0x400
 8001c6c:	6153      	str	r3, [r2, #20]
 8001c6e:	4b2b      	ldr	r3, [pc, #172]	; (8001d1c <EXTI15_10_IRQHandler+0xcc>)
 8001c70:	6a9b      	ldr	r3, [r3, #40]	; 0x28
 8001c72:	4798      	blx	r3
    if(READ_BIT(EXTI->PR, 11) == 1){SET_BIT(EXTI->PR, 11); GP_callback_func[11]();}
 8001c74:	4b28      	ldr	r3, [pc, #160]	; (8001d18 <EXTI15_10_IRQHandler+0xc8>)
 8001c76:	695b      	ldr	r3, [r3, #20]
 8001c78:	0adb      	lsrs	r3, r3, #11
 8001c7a:	f003 0301 	and.w	r3, r3, #1
 8001c7e:	2b01      	cmp	r3, #1
 8001c80:	d108      	bne.n	8001c94 <EXTI15_10_IRQHandler+0x44>
 8001c82:	4b25      	ldr	r3, [pc, #148]	; (8001d18 <EXTI15_10_IRQHandler+0xc8>)
 8001c84:	695b      	ldr	r3, [r3, #20]
 8001c86:	4a24      	ldr	r2, [pc, #144]	; (8001d18 <EXTI15_10_IRQHandler+0xc8>)
 8001c88:	f443 6300 	orr.w	r3, r3, #2048	; 0x800
 8001c8c:	6153      	str	r3, [r2, #20]
 8001c8e:	4b23      	ldr	r3, [pc, #140]	; (8001d1c <EXTI15_10_IRQHandler+0xcc>)
 8001c90:	6adb      	ldr	r3, [r3, #44]	; 0x2c
 8001c92:	4798      	blx	r3
    if(READ_BIT(EXTI->PR, 12) == 1){SET_BIT(EXTI->PR, 12); GP_callback_func[12]();}
 8001c94:	4b20      	ldr	r3, [pc, #128]	; (8001d18 <EXTI15_10_IRQHandler+0xc8>)
 8001c96:	695b      	ldr	r3, [r3, #20]
 8001c98:	0b1b      	lsrs	r3, r3, #12
 8001c9a:	f003 0301 	and.w	r3, r3, #1
 8001c9e:	2b01      	cmp	r3, #1
 8001ca0:	d108      	bne.n	8001cb4 <EXTI15_10_IRQHandler+0x64>
 8001ca2:	4b1d      	ldr	r3, [pc, #116]	; (8001d18 <EXTI15_10_IRQHandler+0xc8>)
 8001ca4:	695b      	ldr	r3, [r3, #20]
 8001ca6:	4a1c      	ldr	r2, [pc, #112]	; (8001d18 <EXTI15_10_IRQHandler+0xc8>)
 8001ca8:	f443 5380 	orr.w	r3, r3, #4096	; 0x1000
 8001cac:	6153      	str	r3, [r2, #20]
 8001cae:	4b1b      	ldr	r3, [pc, #108]	; (8001d1c <EXTI15_10_IRQHandler+0xcc>)
 8001cb0:	6b1b      	ldr	r3, [r3, #48]	; 0x30
 8001cb2:	4798      	blx	r3
    if(READ_BIT(EXTI->PR, 13) == 1){SET_BIT(EXTI->PR, 13); GP_callback_func[13]();}
 8001cb4:	4b18      	ldr	r3, [pc, #96]	; (8001d18 <EXTI15_10_IRQHandler+0xc8>)
 8001cb6:	695b      	ldr	r3, [r3, #20]
 8001cb8:	0b5b      	lsrs	r3, r3, #13
 8001cba:	f003 0301 	and.w	r3, r3, #1
 8001cbe:	2b01      	cmp	r3, #1
 8001cc0:	d108      	bne.n	8001cd4 <EXTI15_10_IRQHandler+0x84>
 8001cc2:	4b15      	ldr	r3, [pc, #84]	; (8001d18 <EXTI15_10_IRQHandler+0xc8>)
 8001cc4:	695b      	ldr	r3, [r3, #20]
 8001cc6:	4a14      	ldr	r2, [pc, #80]	; (8001d18 <EXTI15_10_IRQHandler+0xc8>)
 8001cc8:	f443 5300 	orr.w	r3, r3, #8192	; 0x2000
 8001ccc:	6153      	str	r3, [r2, #20]
 8001cce:	4b13      	ldr	r3, [pc, #76]	; (8001d1c <EXTI15_10_IRQHandler+0xcc>)
 8001cd0:	6b5b      	ldr	r3, [r3, #52]	; 0x34
 8001cd2:	4798      	blx	r3
    if(READ_BIT(EXTI->PR, 14) == 1){SET_BIT(EXTI->PR, 14); GP_callback_func[14]();}
 8001cd4:	4b10      	ldr	r3, [pc, #64]	; (8001d18 <EXTI15_10_IRQHandler+0xc8>)
 8001cd6:	695b      	ldr	r3, [r3, #20]
 8001cd8:	0b9b      	lsrs	r3, r3, #14
 8001cda:	f003 0301 	and.w	r3, r3, #1
 8001cde:	2b01      	cmp	r3, #1
 8001ce0:	d108      	bne.n	8001cf4 <EXTI15_10_IRQHandler+0xa4>
 8001ce2:	4b0d      	ldr	r3, [pc, #52]	; (8001d18 <EXTI15_10_IRQHandler+0xc8>)
 8001ce4:	695b      	ldr	r3, [r3, #20]
 8001ce6:	4a0c      	ldr	r2, [pc, #48]	; (8001d18 <EXTI15_10_IRQHandler+0xc8>)
 8001ce8:	f443 4380 	orr.w	r3, r3, #16384	; 0x4000
 8001cec:	6153      	str	r3, [r2, #20]
 8001cee:	4b0b      	ldr	r3, [pc, #44]	; (8001d1c <EXTI15_10_IRQHandler+0xcc>)
 8001cf0:	6b9b      	ldr	r3, [r3, #56]	; 0x38
 8001cf2:	4798      	blx	r3
    if(READ_BIT(EXTI->PR, 15) == 1){SET_BIT(EXTI->PR, 15); GP_callback_func[15]();}
 8001cf4:	4b08      	ldr	r3, [pc, #32]	; (8001d18 <EXTI15_10_IRQHandler+0xc8>)
 8001cf6:	695b      	ldr	r3, [r3, #20]
 8001cf8:	0bdb      	lsrs	r3, r3, #15
 8001cfa:	f003 0301 	and.w	r3, r3, #1
 8001cfe:	2b01      	cmp	r3, #1
 8001d00:	d108      	bne.n	8001d14 <EXTI15_10_IRQHandler+0xc4>
 8001d02:	4b05      	ldr	r3, [pc, #20]	; (8001d18 <EXTI15_10_IRQHandler+0xc8>)
 8001d04:	695b      	ldr	r3, [r3, #20]
 8001d06:	4a04      	ldr	r2, [pc, #16]	; (8001d18 <EXTI15_10_IRQHandler+0xc8>)
 8001d08:	f443 4300 	orr.w	r3, r3, #32768	; 0x8000
 8001d0c:	6153      	str	r3, [r2, #20]
 8001d0e:	4b03      	ldr	r3, [pc, #12]	; (8001d1c <EXTI15_10_IRQHandler+0xcc>)
 8001d10:	6bdb      	ldr	r3, [r3, #60]	; 0x3c
 8001d12:	4798      	blx	r3
 8001d14:	bf00      	nop
 8001d16:	bd80      	pop	{r7, pc}
 8001d18:	40010400 	.word	0x40010400
 8001d1c:	200000f0 	.word	0x200000f0

08001d20 <MCAL_GPIO_Init>:
* Note			:   Stm32F103C6 MCU has GPIO A,B,C,D,E Modules,
* 				:	But LQFP48 Package has only GPIO A,B,PART of C/D exported as external PINS from the MCU
*===============================================
*/
void MCAL_GPIO_Init(volatile GPIO_t* GPIOx ,GPIO_Pin_Config_t* pinConfig)
{
 8001d20:	b480      	push	{r7}
 8001d22:	b085      	sub	sp, #20
 8001d24:	af00      	add	r7, sp, #0
 8001d26:	6078      	str	r0, [r7, #4]
 8001d28:	6039      	str	r1, [r7, #0]
    /*
    Choose the correct control register based on the pin number
    CRL for pin(0 >> 7)
    CRH for pin(8 >> 15)
     */
    CTRL = (pinConfig->pinNumber < 8)? &(GPIOx->CRL) : &(GPIOx->CRH);
 8001d2a:	683b      	ldr	r3, [r7, #0]
 8001d2c:	881b      	ldrh	r3, [r3, #0]
 8001d2e:	2b07      	cmp	r3, #7
 8001d30:	d801      	bhi.n	8001d36 <MCAL_GPIO_Init+0x16>
 8001d32:	687b      	ldr	r3, [r7, #4]
 8001d34:	e001      	b.n	8001d3a <MCAL_GPIO_Init+0x1a>
 8001d36:	687b      	ldr	r3, [r7, #4]
 8001d38:	3304      	adds	r3, #4
 8001d3a:	60fb      	str	r3, [r7, #12]

    /*Get the needed shift for each pin as each pin takes 4 bits in the register*/
    shift = ((pinConfig->pinNumber % 8) * 4);
 8001d3c:	683b      	ldr	r3, [r7, #0]
 8001d3e:	881b      	ldrh	r3, [r3, #0]
 8001d40:	b2db      	uxtb	r3, r3
 8001d42:	f003 0307 	and.w	r3, r3, #7
 8001d46:	b2db      	uxtb	r3, r3
 8001d48:	009b      	lsls	r3, r3, #2
 8001d4a:	72fb      	strb	r3, [r7, #11]


    *(CTRL) &= ~(0xF << shift);                /*Clear the bits assigned for the required pin number*/
 8001d4c:	68fb      	ldr	r3, [r7, #12]
 8001d4e:	681b      	ldr	r3, [r3, #0]
 8001d50:	7afa      	ldrb	r2, [r7, #11]
 8001d52:	210f      	movs	r1, #15
 8001d54:	fa01 f202 	lsl.w	r2, r1, r2
 8001d58:	43d2      	mvns	r2, r2
 8001d5a:	401a      	ands	r2, r3
 8001d5c:	68fb      	ldr	r3, [r7, #12]
 8001d5e:	601a      	str	r2, [r3, #0]

    /*Input pull-up and pull-down have the same configuration code*/
    if(pinConfig->pinMode == GPIO_MODE_INPUT_PD)
 8001d60:	683b      	ldr	r3, [r7, #0]
 8001d62:	885b      	ldrh	r3, [r3, #2]
 8001d64:	2b10      	cmp	r3, #16
 8001d66:	d114      	bne.n	8001d92 <MCAL_GPIO_Init+0x72>
    {
        *(CTRL) |= (GPIO_MODE_INPUT_PU << shift);
 8001d68:	68fb      	ldr	r3, [r7, #12]
 8001d6a:	681b      	ldr	r3, [r3, #0]
 8001d6c:	7afa      	ldrb	r2, [r7, #11]
 8001d6e:	2108      	movs	r1, #8
 8001d70:	fa01 f202 	lsl.w	r2, r1, r2
 8001d74:	431a      	orrs	r2, r3
 8001d76:	68fb      	ldr	r3, [r7, #12]
 8001d78:	601a      	str	r2, [r3, #0]
        CLEAR_BIT(GPIOx->ODR, pinConfig->pinNumber);
 8001d7a:	687b      	ldr	r3, [r7, #4]
 8001d7c:	68db      	ldr	r3, [r3, #12]
 8001d7e:	683a      	ldr	r2, [r7, #0]
 8001d80:	8812      	ldrh	r2, [r2, #0]
 8001d82:	4611      	mov	r1, r2
 8001d84:	2201      	movs	r2, #1
 8001d86:	408a      	lsls	r2, r1
 8001d88:	43d2      	mvns	r2, r2
 8001d8a:	401a      	ands	r2, r3
 8001d8c:	687b      	ldr	r3, [r7, #4]
 8001d8e:	60da      	str	r2, [r3, #12]
        if(pinConfig->pinMode == GPIO_MODE_INPUT_PU)
        {
            SET_BIT(GPIOx->ODR, pinConfig->pinNumber);
        }
    }
}
 8001d90:	e018      	b.n	8001dc4 <MCAL_GPIO_Init+0xa4>
        *(CTRL) |= (pinConfig->pinMode << shift);  /*Set the mode*/
 8001d92:	68fb      	ldr	r3, [r7, #12]
 8001d94:	681b      	ldr	r3, [r3, #0]
 8001d96:	683a      	ldr	r2, [r7, #0]
 8001d98:	8852      	ldrh	r2, [r2, #2]
 8001d9a:	4611      	mov	r1, r2
 8001d9c:	7afa      	ldrb	r2, [r7, #11]
 8001d9e:	fa01 f202 	lsl.w	r2, r1, r2
 8001da2:	431a      	orrs	r2, r3
 8001da4:	68fb      	ldr	r3, [r7, #12]
 8001da6:	601a      	str	r2, [r3, #0]
        if(pinConfig->pinMode == GPIO_MODE_INPUT_PU)
 8001da8:	683b      	ldr	r3, [r7, #0]
 8001daa:	885b      	ldrh	r3, [r3, #2]
 8001dac:	2b08      	cmp	r3, #8
 8001dae:	d109      	bne.n	8001dc4 <MCAL_GPIO_Init+0xa4>
            SET_BIT(GPIOx->ODR, pinConfig->pinNumber);
 8001db0:	687b      	ldr	r3, [r7, #4]
 8001db2:	68db      	ldr	r3, [r3, #12]
 8001db4:	683a      	ldr	r2, [r7, #0]
 8001db6:	8812      	ldrh	r2, [r2, #0]
 8001db8:	4611      	mov	r1, r2
 8001dba:	2201      	movs	r2, #1
 8001dbc:	408a      	lsls	r2, r1
 8001dbe:	431a      	orrs	r2, r3
 8001dc0:	687b      	ldr	r3, [r7, #4]
 8001dc2:	60da      	str	r2, [r3, #12]
}
 8001dc4:	bf00      	nop
 8001dc6:	3714      	adds	r7, #20
 8001dc8:	46bd      	mov	sp, r7
 8001dca:	bc80      	pop	{r7}
 8001dcc:	4770      	bx	lr

08001dce <MCAL_GPIO_ReadPin>:
* @return_value :   Current pin status which can be a value of @ref GPIO_PIN_STATUS.
* Note			:   none.
*===============================================
*/
uint8 MCAL_GPIO_ReadPin(volatile GPIO_t* GPIOx, uint16 pinNumber)
{
 8001dce:	b480      	push	{r7}
 8001dd0:	b085      	sub	sp, #20
 8001dd2:	af00      	add	r7, sp, #0
 8001dd4:	6078      	str	r0, [r7, #4]
 8001dd6:	460b      	mov	r3, r1
 8001dd8:	807b      	strh	r3, [r7, #2]
    uint8 status;
    status = (READ_BIT(GPIOx->IDR, pinNumber))? (uint8)(GPIO_PIN_HIGH): (uint8)(GPIO_PIN_LOW);
 8001dda:	687b      	ldr	r3, [r7, #4]
 8001ddc:	689b      	ldr	r3, [r3, #8]
 8001dde:	887a      	ldrh	r2, [r7, #2]
 8001de0:	2101      	movs	r1, #1
 8001de2:	fa01 f202 	lsl.w	r2, r1, r2
 8001de6:	401a      	ands	r2, r3
 8001de8:	887b      	ldrh	r3, [r7, #2]
 8001dea:	fa22 f303 	lsr.w	r3, r2, r3
 8001dee:	2b00      	cmp	r3, #0
 8001df0:	bf14      	ite	ne
 8001df2:	2301      	movne	r3, #1
 8001df4:	2300      	moveq	r3, #0
 8001df6:	b2db      	uxtb	r3, r3
 8001df8:	73fb      	strb	r3, [r7, #15]

    return status;
 8001dfa:	7bfb      	ldrb	r3, [r7, #15]
}
 8001dfc:	4618      	mov	r0, r3
 8001dfe:	3714      	adds	r7, #20
 8001e00:	46bd      	mov	sp, r7
 8001e02:	bc80      	pop	{r7}
 8001e04:	4770      	bx	lr

08001e06 <MCAL_GPIO_WritePin>:
* @return_value :   none.
* Note			:   none.
*===============================================
*/
void MCAL_GPIO_WritePin(volatile GPIO_t* GPIOx, uint16 pinNumber, uint8 value)
{
 8001e06:	b480      	push	{r7}
 8001e08:	b083      	sub	sp, #12
 8001e0a:	af00      	add	r7, sp, #0
 8001e0c:	6078      	str	r0, [r7, #4]
 8001e0e:	460b      	mov	r3, r1
 8001e10:	807b      	strh	r3, [r7, #2]
 8001e12:	4613      	mov	r3, r2
 8001e14:	707b      	strb	r3, [r7, #1]
    if(value == GPIO_PIN_HIGH)
 8001e16:	787b      	ldrb	r3, [r7, #1]
 8001e18:	2b01      	cmp	r3, #1
 8001e1a:	d109      	bne.n	8001e30 <MCAL_GPIO_WritePin+0x2a>
    {
        SET_BIT(GPIOx->ODR, pinNumber);
 8001e1c:	687b      	ldr	r3, [r7, #4]
 8001e1e:	68db      	ldr	r3, [r3, #12]
 8001e20:	887a      	ldrh	r2, [r7, #2]
 8001e22:	2101      	movs	r1, #1
 8001e24:	fa01 f202 	lsl.w	r2, r1, r2
 8001e28:	431a      	orrs	r2, r3
 8001e2a:	687b      	ldr	r3, [r7, #4]
 8001e2c:	60da      	str	r2, [r3, #12]
    }else{
        CLEAR_BIT(GPIOx->ODR, pinNumber);
    }
}
 8001e2e:	e009      	b.n	8001e44 <MCAL_GPIO_WritePin+0x3e>
        CLEAR_BIT(GPIOx->ODR, pinNumber);
 8001e30:	687b      	ldr	r3, [r7, #4]
 8001e32:	68db      	ldr	r3, [r3, #12]
 8001e34:	887a      	ldrh	r2, [r7, #2]
 8001e36:	2101      	movs	r1, #1
 8001e38:	fa01 f202 	lsl.w	r2, r1, r2
 8001e3c:	43d2      	mvns	r2, r2
 8001e3e:	401a      	ands	r2, r3
 8001e40:	687b      	ldr	r3, [r7, #4]
 8001e42:	60da      	str	r2, [r3, #12]
}
 8001e44:	bf00      	nop
 8001e46:	370c      	adds	r7, #12
 8001e48:	46bd      	mov	sp, r7
 8001e4a:	bc80      	pop	{r7}
 8001e4c:	4770      	bx	lr

08001e4e <MCAL_NVIC_EnableIRQ>:
* @return_value :   none.   
* Note			:   none.
======================================================================================================================
*/
void MCAL_NVIC_EnableIRQ(uint8 IRQn)
{
 8001e4e:	b480      	push	{r7}
 8001e50:	b085      	sub	sp, #20
 8001e52:	af00      	add	r7, sp, #0
 8001e54:	4603      	mov	r3, r0
 8001e56:	71fb      	strb	r3, [r7, #7]
    uint8 register_index = IRQn / 32;
 8001e58:	79fb      	ldrb	r3, [r7, #7]
 8001e5a:	095b      	lsrs	r3, r3, #5
 8001e5c:	73fb      	strb	r3, [r7, #15]

    SET_BIT(NVIC_ISER_BASE[register_index], (IRQn % 32));
 8001e5e:	7bfb      	ldrb	r3, [r7, #15]
 8001e60:	009b      	lsls	r3, r3, #2
 8001e62:	f103 4360 	add.w	r3, r3, #3758096384	; 0xe0000000
 8001e66:	f503 4361 	add.w	r3, r3, #57600	; 0xe100
 8001e6a:	681a      	ldr	r2, [r3, #0]
 8001e6c:	79fb      	ldrb	r3, [r7, #7]
 8001e6e:	f003 031f 	and.w	r3, r3, #31
 8001e72:	2101      	movs	r1, #1
 8001e74:	fa01 f303 	lsl.w	r3, r1, r3
 8001e78:	4619      	mov	r1, r3
 8001e7a:	7bfb      	ldrb	r3, [r7, #15]
 8001e7c:	009b      	lsls	r3, r3, #2
 8001e7e:	f103 4360 	add.w	r3, r3, #3758096384	; 0xe0000000
 8001e82:	f503 4361 	add.w	r3, r3, #57600	; 0xe100
 8001e86:	430a      	orrs	r2, r1
 8001e88:	601a      	str	r2, [r3, #0]
}
 8001e8a:	bf00      	nop
 8001e8c:	3714      	adds	r7, #20
 8001e8e:	46bd      	mov	sp, r7
 8001e90:	bc80      	pop	{r7}
 8001e92:	4770      	bx	lr

08001e94 <MCAL_NVIC_DisableIRQ>:
*               :   When you write on this register using the traditional |= method you will disable all the interrupts
*               :   in this register as writing one on the required IRQ bit will disable it. 
======================================================================================================================
*/
void MCAL_NVIC_DisableIRQ(uint8 IRQn)
{
 8001e94:	b480      	push	{r7}
 8001e96:	b085      	sub	sp, #20
 8001e98:	af00      	add	r7, sp, #0
 8001e9a:	4603      	mov	r3, r0
 8001e9c:	71fb      	strb	r3, [r7, #7]
    uint8 register_index = IRQn / 32;
 8001e9e:	79fb      	ldrb	r3, [r7, #7]
 8001ea0:	095b      	lsrs	r3, r3, #5
 8001ea2:	73fb      	strb	r3, [r7, #15]

    NVIC_ICER_BASE[register_index]= 1 << (IRQn % 32);
 8001ea4:	79fb      	ldrb	r3, [r7, #7]
 8001ea6:	f003 031f 	and.w	r3, r3, #31
 8001eaa:	2201      	movs	r2, #1
 8001eac:	fa02 f103 	lsl.w	r1, r2, r3
 8001eb0:	7bfb      	ldrb	r3, [r7, #15]
 8001eb2:	009a      	lsls	r2, r3, #2
 8001eb4:	4b04      	ldr	r3, [pc, #16]	; (8001ec8 <MCAL_NVIC_DisableIRQ+0x34>)
 8001eb6:	4413      	add	r3, r2
 8001eb8:	460a      	mov	r2, r1
 8001eba:	601a      	str	r2, [r3, #0]
}
 8001ebc:	bf00      	nop
 8001ebe:	3714      	adds	r7, #20
 8001ec0:	46bd      	mov	sp, r7
 8001ec2:	bc80      	pop	{r7}
 8001ec4:	4770      	bx	lr
 8001ec6:	bf00      	nop
 8001ec8:	e000e180 	.word	0xe000e180

08001ecc <MCAL_NVIC_SetPriority>:
* @return_value :   none.
* Note			:   none.
======================================================================================================================
*/
void MCAL_NVIC_SetPriority (uint8 IRQn, uint8 priority)
{
 8001ecc:	b480      	push	{r7}
 8001ece:	b085      	sub	sp, #20
 8001ed0:	af00      	add	r7, sp, #0
 8001ed2:	4603      	mov	r3, r0
 8001ed4:	460a      	mov	r2, r1
 8001ed6:	71fb      	strb	r3, [r7, #7]
 8001ed8:	4613      	mov	r3, r2
 8001eda:	71bb      	strb	r3, [r7, #6]
    uint8 register_index = IRQn / 4, shift;
 8001edc:	79fb      	ldrb	r3, [r7, #7]
 8001ede:	089b      	lsrs	r3, r3, #2
 8001ee0:	73fb      	strb	r3, [r7, #15]
    shift = (((IRQn % 4) * 8) + 4);
 8001ee2:	79fb      	ldrb	r3, [r7, #7]
 8001ee4:	f003 0303 	and.w	r3, r3, #3
 8001ee8:	b2db      	uxtb	r3, r3
 8001eea:	00db      	lsls	r3, r3, #3
 8001eec:	b2db      	uxtb	r3, r3
 8001eee:	3304      	adds	r3, #4
 8001ef0:	73bb      	strb	r3, [r7, #14]
    
    /*Clear the bits*/
    NVIC_IPR_BASE[register_index] &= ~(0xF << shift);
 8001ef2:	7bfb      	ldrb	r3, [r7, #15]
 8001ef4:	009b      	lsls	r3, r3, #2
 8001ef6:	f103 4360 	add.w	r3, r3, #3758096384	; 0xe0000000
 8001efa:	f503 4364 	add.w	r3, r3, #58368	; 0xe400
 8001efe:	681a      	ldr	r2, [r3, #0]
 8001f00:	7bbb      	ldrb	r3, [r7, #14]
 8001f02:	210f      	movs	r1, #15
 8001f04:	fa01 f303 	lsl.w	r3, r1, r3
 8001f08:	43db      	mvns	r3, r3
 8001f0a:	4619      	mov	r1, r3
 8001f0c:	7bfb      	ldrb	r3, [r7, #15]
 8001f0e:	009b      	lsls	r3, r3, #2
 8001f10:	f103 4360 	add.w	r3, r3, #3758096384	; 0xe0000000
 8001f14:	f503 4364 	add.w	r3, r3, #58368	; 0xe400
 8001f18:	400a      	ands	r2, r1
 8001f1a:	601a      	str	r2, [r3, #0]

    /*Set the new priority value*/
    NVIC_IPR_BASE[register_index] |= (priority & 0xF) << shift;
 8001f1c:	7bfb      	ldrb	r3, [r7, #15]
 8001f1e:	009b      	lsls	r3, r3, #2
 8001f20:	f103 4360 	add.w	r3, r3, #3758096384	; 0xe0000000
 8001f24:	f503 4364 	add.w	r3, r3, #58368	; 0xe400
 8001f28:	681a      	ldr	r2, [r3, #0]
 8001f2a:	79bb      	ldrb	r3, [r7, #6]
 8001f2c:	f003 010f 	and.w	r1, r3, #15
 8001f30:	7bbb      	ldrb	r3, [r7, #14]
 8001f32:	fa01 f303 	lsl.w	r3, r1, r3
 8001f36:	4619      	mov	r1, r3
 8001f38:	7bfb      	ldrb	r3, [r7, #15]
 8001f3a:	009b      	lsls	r3, r3, #2
 8001f3c:	f103 4360 	add.w	r3, r3, #3758096384	; 0xe0000000
 8001f40:	f503 4364 	add.w	r3, r3, #58368	; 0xe400
 8001f44:	430a      	orrs	r2, r1
 8001f46:	601a      	str	r2, [r3, #0]
}
 8001f48:	bf00      	nop
 8001f4a:	3714      	adds	r7, #20
 8001f4c:	46bd      	mov	sp, r7
 8001f4e:	bc80      	pop	{r7}
 8001f50:	4770      	bx	lr
	...

08001f54 <MCAL_RCC_GET_SYSCLK>:
* @return_value :   The system clock frequency.
* Note			:   none.
======================================================================================================================
*/
uint32 MCAL_RCC_GET_SYSCLK(void)
{
 8001f54:	b480      	push	{r7}
 8001f56:	b083      	sub	sp, #12
 8001f58:	af00      	add	r7, sp, #0
	uint32 LOC_CLKFreq = 0;
 8001f5a:	2300      	movs	r3, #0
 8001f5c:	607b      	str	r3, [r7, #4]
	00: HSI oscillator used as system clock
	01: HSE oscillator used as system clock
	10: PLL used as system clock
	11: Not applicable
    */
	switch  ( (RCC->CFGR  >> 2  ) & 0b11 )
 8001f5e:	4b0d      	ldr	r3, [pc, #52]	; (8001f94 <MCAL_RCC_GET_SYSCLK+0x40>)
 8001f60:	685b      	ldr	r3, [r3, #4]
 8001f62:	089b      	lsrs	r3, r3, #2
 8001f64:	f003 0303 	and.w	r3, r3, #3
 8001f68:	2b01      	cmp	r3, #1
 8001f6a:	d007      	beq.n	8001f7c <MCAL_RCC_GET_SYSCLK+0x28>
 8001f6c:	2b01      	cmp	r3, #1
 8001f6e:	d302      	bcc.n	8001f76 <MCAL_RCC_GET_SYSCLK+0x22>
 8001f70:	2b02      	cmp	r3, #2
 8001f72:	d006      	beq.n	8001f82 <MCAL_RCC_GET_SYSCLK+0x2e>
 8001f74:	e008      	b.n	8001f88 <MCAL_RCC_GET_SYSCLK+0x34>
	{
	case 0:

		LOC_CLKFreq = HSI_RC_Clk ;
 8001f76:	4b08      	ldr	r3, [pc, #32]	; (8001f98 <MCAL_RCC_GET_SYSCLK+0x44>)
 8001f78:	607b      	str	r3, [r7, #4]
		break ;
 8001f7a:	e005      	b.n	8001f88 <MCAL_RCC_GET_SYSCLK+0x34>

	case 1:

		/*todo need to calculate  it "HSE User Should Specify it"*/
		LOC_CLKFreq = HSE_Clock ;
 8001f7c:	4b07      	ldr	r3, [pc, #28]	; (8001f9c <MCAL_RCC_GET_SYSCLK+0x48>)
 8001f7e:	607b      	str	r3, [r7, #4]
		break ;
 8001f80:	e002      	b.n	8001f88 <MCAL_RCC_GET_SYSCLK+0x34>

	case 2:

		/*todo need to calculate  it PLLCLK and PLLMUL & PLL Source MUX*/
		LOC_CLKFreq = 16000000 ;
 8001f82:	4b06      	ldr	r3, [pc, #24]	; (8001f9c <MCAL_RCC_GET_SYSCLK+0x48>)
 8001f84:	607b      	str	r3, [r7, #4]
		break ;
 8001f86:	bf00      	nop

	}

	return LOC_CLKFreq;
 8001f88:	687b      	ldr	r3, [r7, #4]
}
 8001f8a:	4618      	mov	r0, r3
 8001f8c:	370c      	adds	r7, #12
 8001f8e:	46bd      	mov	sp, r7
 8001f90:	bc80      	pop	{r7}
 8001f92:	4770      	bx	lr
 8001f94:	40021000 	.word	0x40021000
 8001f98:	007a1200 	.word	0x007a1200
 8001f9c:	00f42400 	.word	0x00f42400

08001fa0 <MCAL_SPI_GPIO_Set_Pins>:
* @return_value :   none.
* Note			:   none.
======================================================================================================================
*/
static void MCAL_SPI_GPIO_Set_Pins(volatile SPI_Typedef * SPIx)
{
 8001fa0:	b580      	push	{r7, lr}
 8001fa2:	b086      	sub	sp, #24
 8001fa4:	af00      	add	r7, sp, #0
 8001fa6:	6078      	str	r0, [r7, #4]
    uint8 index, SCK_pin, MOSI_Pin, MISO_Pin, SS_Pin;
    volatile GPIO_t* GPIOx;
    GPIO_Pin_Config_t GPIO_Config;
    if(SPIx == SPI1)
 8001fa8:	687b      	ldr	r3, [r7, #4]
 8001faa:	4a6b      	ldr	r2, [pc, #428]	; (8002158 <MCAL_SPI_GPIO_Set_Pins+0x1b8>)
 8001fac:	4293      	cmp	r3, r2
 8001fae:	d10c      	bne.n	8001fca <MCAL_SPI_GPIO_Set_Pins+0x2a>
    {
        index = SPI1_INDEX;
 8001fb0:	2300      	movs	r3, #0
 8001fb2:	75fb      	strb	r3, [r7, #23]
        *       SPI1_MISO   : PA6
        *       SPI1_MOSI   : PA7
        * @}
        */

       SS_Pin   = GPIO_PIN4;
 8001fb4:	2304      	movs	r3, #4
 8001fb6:	74fb      	strb	r3, [r7, #19]
       SCK_pin  = GPIO_PIN5; 
 8001fb8:	2305      	movs	r3, #5
 8001fba:	75bb      	strb	r3, [r7, #22]
       MISO_Pin = GPIO_PIN6; 
 8001fbc:	2306      	movs	r3, #6
 8001fbe:	753b      	strb	r3, [r7, #20]
       MOSI_Pin = GPIO_PIN7; 
 8001fc0:	2307      	movs	r3, #7
 8001fc2:	757b      	strb	r3, [r7, #21]

       GPIOx = GPIOA;
 8001fc4:	4b65      	ldr	r3, [pc, #404]	; (800215c <MCAL_SPI_GPIO_Set_Pins+0x1bc>)
 8001fc6:	60fb      	str	r3, [r7, #12]
 8001fc8:	e00b      	b.n	8001fe2 <MCAL_SPI_GPIO_Set_Pins+0x42>
    }else
    {
        index = SPI2_INDEX;
 8001fca:	2301      	movs	r3, #1
 8001fcc:	75fb      	strb	r3, [r7, #23]
        *       SPI2_SCK    : PB13
        *       SPI2_MISO   : PB14
        *       SPI2_MOSI   : PB15
        * @}
        */
       SS_Pin   = GPIO_PIN12;
 8001fce:	230c      	movs	r3, #12
 8001fd0:	74fb      	strb	r3, [r7, #19]
       SCK_pin  = GPIO_PIN13; 
 8001fd2:	230d      	movs	r3, #13
 8001fd4:	75bb      	strb	r3, [r7, #22]
       MISO_Pin = GPIO_PIN14; 
 8001fd6:	230e      	movs	r3, #14
 8001fd8:	753b      	strb	r3, [r7, #20]
       MOSI_Pin = GPIO_PIN15; 
 8001fda:	230f      	movs	r3, #15
 8001fdc:	757b      	strb	r3, [r7, #21]

       GPIOx = GPIOB;
 8001fde:	4b60      	ldr	r3, [pc, #384]	; (8002160 <MCAL_SPI_GPIO_Set_Pins+0x1c0>)
 8001fe0:	60fb      	str	r3, [r7, #12]
    }

    if(SPI_Config[index].SPI_Mode == SPI_MODE_MASTER)
 8001fe2:	7dfb      	ldrb	r3, [r7, #23]
 8001fe4:	4a5f      	ldr	r2, [pc, #380]	; (8002164 <MCAL_SPI_GPIO_Set_Pins+0x1c4>)
 8001fe6:	011b      	lsls	r3, r3, #4
 8001fe8:	4413      	add	r3, r2
 8001fea:	881b      	ldrh	r3, [r3, #0]
 8001fec:	2b04      	cmp	r3, #4
 8001fee:	d159      	bne.n	80020a4 <MCAL_SPI_GPIO_Set_Pins+0x104>
    {
        /*SPIx_SCK: Master ====> Alternate function push-pull*/
        GPIO_Config.pinNumber = SCK_pin;
 8001ff0:	7dbb      	ldrb	r3, [r7, #22]
 8001ff2:	b29b      	uxth	r3, r3
 8001ff4:	813b      	strh	r3, [r7, #8]
        GPIO_Config.pinMode = GPIO_MODE_AF_OUTPUT_PP_10MHZ;
 8001ff6:	2309      	movs	r3, #9
 8001ff8:	817b      	strh	r3, [r7, #10]
        MCAL_GPIO_Init(GPIOx, &GPIO_Config);
 8001ffa:	f107 0308 	add.w	r3, r7, #8
 8001ffe:	4619      	mov	r1, r3
 8002000:	68f8      	ldr	r0, [r7, #12]
 8002002:	f7ff fe8d 	bl	8001d20 <MCAL_GPIO_Init>

        /*SPIx_MOSI: Full duplex/master ===> Alternate function push-pull,
        Simplex bidirectional data wire / master Alternate function push-pull*/
        GPIO_Config.pinNumber = MOSI_Pin;
 8002006:	7d7b      	ldrb	r3, [r7, #21]
 8002008:	b29b      	uxth	r3, r3
 800200a:	813b      	strh	r3, [r7, #8]
        GPIO_Config.pinMode = GPIO_MODE_AF_OUTPUT_PP_10MHZ;
 800200c:	2309      	movs	r3, #9
 800200e:	817b      	strh	r3, [r7, #10]
        MCAL_GPIO_Init(GPIOx, &GPIO_Config);
 8002010:	f107 0308 	add.w	r3, r7, #8
 8002014:	4619      	mov	r1, r3
 8002016:	68f8      	ldr	r0, [r7, #12]
 8002018:	f7ff fe82 	bl	8001d20 <MCAL_GPIO_Init>

        /*SPIx_MISO: Full duplex/master ===> Input floating / Input pull-up
        Simplex bidirectional data wire/master ===> Not used. Can be used as a GPIO*/
        if(SPI_Config[index].SPI_Direction == SPI_DIRECTION_2LINES_FULL_DUPLEX ||
 800201c:	7dfb      	ldrb	r3, [r7, #23]
 800201e:	4a51      	ldr	r2, [pc, #324]	; (8002164 <MCAL_SPI_GPIO_Set_Pins+0x1c4>)
 8002020:	011b      	lsls	r3, r3, #4
 8002022:	4413      	add	r3, r2
 8002024:	3302      	adds	r3, #2
 8002026:	881b      	ldrh	r3, [r3, #0]
 8002028:	2b00      	cmp	r3, #0
 800202a:	d008      	beq.n	800203e <MCAL_SPI_GPIO_Set_Pins+0x9e>
           SPI_Config[index].SPI_Direction == SPI_DIRECTION_2LINES_RX_ONLY)
 800202c:	7dfb      	ldrb	r3, [r7, #23]
 800202e:	4a4d      	ldr	r2, [pc, #308]	; (8002164 <MCAL_SPI_GPIO_Set_Pins+0x1c4>)
 8002030:	011b      	lsls	r3, r3, #4
 8002032:	4413      	add	r3, r2
 8002034:	3302      	adds	r3, #2
 8002036:	881b      	ldrh	r3, [r3, #0]
        if(SPI_Config[index].SPI_Direction == SPI_DIRECTION_2LINES_FULL_DUPLEX ||
 8002038:	f5b3 6f80 	cmp.w	r3, #1024	; 0x400
 800203c:	d10a      	bne.n	8002054 <MCAL_SPI_GPIO_Set_Pins+0xb4>
        {
            GPIO_Config.pinNumber = MISO_Pin;
 800203e:	7d3b      	ldrb	r3, [r7, #20]
 8002040:	b29b      	uxth	r3, r3
 8002042:	813b      	strh	r3, [r7, #8]
            GPIO_Config.pinMode = GPIO_MODE_INPUT_FLOATING;
 8002044:	2304      	movs	r3, #4
 8002046:	817b      	strh	r3, [r7, #10]
            MCAL_GPIO_Init(GPIOx, &GPIO_Config);
 8002048:	f107 0308 	add.w	r3, r7, #8
 800204c:	4619      	mov	r1, r3
 800204e:	68f8      	ldr	r0, [r7, #12]
 8002050:	f7ff fe66 	bl	8001d20 <MCAL_GPIO_Init>
        }

        /*SPIx_NSS: Hardware master/slave ===> Input floating/ Input pull-up / Input pull-down*/
        if(SPI_Config[index].SPI_NSS_Managment == SPI_NSS_HW_INPUT)
 8002054:	7dfb      	ldrb	r3, [r7, #23]
 8002056:	4a43      	ldr	r2, [pc, #268]	; (8002164 <MCAL_SPI_GPIO_Set_Pins+0x1c4>)
 8002058:	011b      	lsls	r3, r3, #4
 800205a:	4413      	add	r3, r2
 800205c:	330c      	adds	r3, #12
 800205e:	881b      	ldrh	r3, [r3, #0]
 8002060:	2b00      	cmp	r3, #0
 8002062:	d10b      	bne.n	800207c <MCAL_SPI_GPIO_Set_Pins+0xdc>
        {
            GPIO_Config.pinNumber = SS_Pin;
 8002064:	7cfb      	ldrb	r3, [r7, #19]
 8002066:	b29b      	uxth	r3, r3
 8002068:	813b      	strh	r3, [r7, #8]
            GPIO_Config.pinMode = GPIO_MODE_INPUT_FLOATING;
 800206a:	2304      	movs	r3, #4
 800206c:	817b      	strh	r3, [r7, #10]
            MCAL_GPIO_Init(GPIOx, &GPIO_Config);
 800206e:	f107 0308 	add.w	r3, r7, #8
 8002072:	4619      	mov	r1, r3
 8002074:	68f8      	ldr	r0, [r7, #12]
 8002076:	f7ff fe53 	bl	8001d20 <MCAL_GPIO_Init>
            GPIO_Config.pinMode = GPIO_MODE_INPUT_FLOATING;
            MCAL_GPIO_Init(GPIOx, &GPIO_Config);
        }
    }

}
 800207a:	e069      	b.n	8002150 <MCAL_SPI_GPIO_Set_Pins+0x1b0>
        else if(SPI_Config[index].SPI_NSS_Managment == SPI_NSS_HW_OUTPUT)
 800207c:	7dfb      	ldrb	r3, [r7, #23]
 800207e:	4a39      	ldr	r2, [pc, #228]	; (8002164 <MCAL_SPI_GPIO_Set_Pins+0x1c4>)
 8002080:	011b      	lsls	r3, r3, #4
 8002082:	4413      	add	r3, r2
 8002084:	330c      	adds	r3, #12
 8002086:	881b      	ldrh	r3, [r3, #0]
 8002088:	2b04      	cmp	r3, #4
 800208a:	d161      	bne.n	8002150 <MCAL_SPI_GPIO_Set_Pins+0x1b0>
            GPIO_Config.pinNumber = SS_Pin;
 800208c:	7cfb      	ldrb	r3, [r7, #19]
 800208e:	b29b      	uxth	r3, r3
 8002090:	813b      	strh	r3, [r7, #8]
            GPIO_Config.pinMode = GPIO_MODE_AF_OUTPUT_PP_10MHZ;
 8002092:	2309      	movs	r3, #9
 8002094:	817b      	strh	r3, [r7, #10]
            MCAL_GPIO_Init(GPIOx, &GPIO_Config);
 8002096:	f107 0308 	add.w	r3, r7, #8
 800209a:	4619      	mov	r1, r3
 800209c:	68f8      	ldr	r0, [r7, #12]
 800209e:	f7ff fe3f 	bl	8001d20 <MCAL_GPIO_Init>
}
 80020a2:	e055      	b.n	8002150 <MCAL_SPI_GPIO_Set_Pins+0x1b0>
        GPIO_Config.pinNumber = SCK_pin;
 80020a4:	7dbb      	ldrb	r3, [r7, #22]
 80020a6:	b29b      	uxth	r3, r3
 80020a8:	813b      	strh	r3, [r7, #8]
        GPIO_Config.pinMode = GPIO_MODE_INPUT_FLOATING;
 80020aa:	2304      	movs	r3, #4
 80020ac:	817b      	strh	r3, [r7, #10]
        MCAL_GPIO_Init(GPIOx, &GPIO_Config);
 80020ae:	f107 0308 	add.w	r3, r7, #8
 80020b2:	4619      	mov	r1, r3
 80020b4:	68f8      	ldr	r0, [r7, #12]
 80020b6:	f7ff fe33 	bl	8001d20 <MCAL_GPIO_Init>
        if(SPI_Config[index].SPI_Direction == SPI_DIRECTION_2LINES_FULL_DUPLEX ||
 80020ba:	7dfb      	ldrb	r3, [r7, #23]
 80020bc:	4a29      	ldr	r2, [pc, #164]	; (8002164 <MCAL_SPI_GPIO_Set_Pins+0x1c4>)
 80020be:	011b      	lsls	r3, r3, #4
 80020c0:	4413      	add	r3, r2
 80020c2:	3302      	adds	r3, #2
 80020c4:	881b      	ldrh	r3, [r3, #0]
 80020c6:	2b00      	cmp	r3, #0
 80020c8:	d008      	beq.n	80020dc <MCAL_SPI_GPIO_Set_Pins+0x13c>
           SPI_Config[index].SPI_Direction == SPI_DIRECTION_2LINES_RX_ONLY)
 80020ca:	7dfb      	ldrb	r3, [r7, #23]
 80020cc:	4a25      	ldr	r2, [pc, #148]	; (8002164 <MCAL_SPI_GPIO_Set_Pins+0x1c4>)
 80020ce:	011b      	lsls	r3, r3, #4
 80020d0:	4413      	add	r3, r2
 80020d2:	3302      	adds	r3, #2
 80020d4:	881b      	ldrh	r3, [r3, #0]
        if(SPI_Config[index].SPI_Direction == SPI_DIRECTION_2LINES_FULL_DUPLEX ||
 80020d6:	f5b3 6f80 	cmp.w	r3, #1024	; 0x400
 80020da:	d10a      	bne.n	80020f2 <MCAL_SPI_GPIO_Set_Pins+0x152>
            GPIO_Config.pinNumber = MOSI_Pin;
 80020dc:	7d7b      	ldrb	r3, [r7, #21]
 80020de:	b29b      	uxth	r3, r3
 80020e0:	813b      	strh	r3, [r7, #8]
            GPIO_Config.pinMode = GPIO_MODE_INPUT_FLOATING;
 80020e2:	2304      	movs	r3, #4
 80020e4:	817b      	strh	r3, [r7, #10]
            MCAL_GPIO_Init(GPIOx, &GPIO_Config);
 80020e6:	f107 0308 	add.w	r3, r7, #8
 80020ea:	4619      	mov	r1, r3
 80020ec:	68f8      	ldr	r0, [r7, #12]
 80020ee:	f7ff fe17 	bl	8001d20 <MCAL_GPIO_Init>
        if(SPI_Config[index].SPI_Direction == SPI_DIRECTION_2LINES_FULL_DUPLEX ||
 80020f2:	7dfb      	ldrb	r3, [r7, #23]
 80020f4:	4a1b      	ldr	r2, [pc, #108]	; (8002164 <MCAL_SPI_GPIO_Set_Pins+0x1c4>)
 80020f6:	011b      	lsls	r3, r3, #4
 80020f8:	4413      	add	r3, r2
 80020fa:	3302      	adds	r3, #2
 80020fc:	881b      	ldrh	r3, [r3, #0]
 80020fe:	2b00      	cmp	r3, #0
 8002100:	d008      	beq.n	8002114 <MCAL_SPI_GPIO_Set_Pins+0x174>
           SPI_Config[index].SPI_Direction == SPI_DIRECTION_1LINE_TX)
 8002102:	7dfb      	ldrb	r3, [r7, #23]
 8002104:	4a17      	ldr	r2, [pc, #92]	; (8002164 <MCAL_SPI_GPIO_Set_Pins+0x1c4>)
 8002106:	011b      	lsls	r3, r3, #4
 8002108:	4413      	add	r3, r2
 800210a:	3302      	adds	r3, #2
 800210c:	881b      	ldrh	r3, [r3, #0]
        if(SPI_Config[index].SPI_Direction == SPI_DIRECTION_2LINES_FULL_DUPLEX ||
 800210e:	f5b3 4f40 	cmp.w	r3, #49152	; 0xc000
 8002112:	d10a      	bne.n	800212a <MCAL_SPI_GPIO_Set_Pins+0x18a>
            GPIO_Config.pinNumber = MISO_Pin;
 8002114:	7d3b      	ldrb	r3, [r7, #20]
 8002116:	b29b      	uxth	r3, r3
 8002118:	813b      	strh	r3, [r7, #8]
            GPIO_Config.pinMode = GPIO_MODE_AF_OUTPUT_PP_10MHZ;
 800211a:	2309      	movs	r3, #9
 800211c:	817b      	strh	r3, [r7, #10]
            MCAL_GPIO_Init(GPIOx, &GPIO_Config);
 800211e:	f107 0308 	add.w	r3, r7, #8
 8002122:	4619      	mov	r1, r3
 8002124:	68f8      	ldr	r0, [r7, #12]
 8002126:	f7ff fdfb 	bl	8001d20 <MCAL_GPIO_Init>
        if(SPI_Config[index].SPI_NSS_Managment == SPI_NSS_HW_INPUT)
 800212a:	7dfb      	ldrb	r3, [r7, #23]
 800212c:	4a0d      	ldr	r2, [pc, #52]	; (8002164 <MCAL_SPI_GPIO_Set_Pins+0x1c4>)
 800212e:	011b      	lsls	r3, r3, #4
 8002130:	4413      	add	r3, r2
 8002132:	330c      	adds	r3, #12
 8002134:	881b      	ldrh	r3, [r3, #0]
 8002136:	2b00      	cmp	r3, #0
 8002138:	d10a      	bne.n	8002150 <MCAL_SPI_GPIO_Set_Pins+0x1b0>
            GPIO_Config.pinNumber = SS_Pin;
 800213a:	7cfb      	ldrb	r3, [r7, #19]
 800213c:	b29b      	uxth	r3, r3
 800213e:	813b      	strh	r3, [r7, #8]
            GPIO_Config.pinMode = GPIO_MODE_INPUT_FLOATING;
 8002140:	2304      	movs	r3, #4
 8002142:	817b      	strh	r3, [r7, #10]
            MCAL_GPIO_Init(GPIOx, &GPIO_Config);
 8002144:	f107 0308 	add.w	r3, r7, #8
 8002148:	4619      	mov	r1, r3
 800214a:	68f8      	ldr	r0, [r7, #12]
 800214c:	f7ff fde8 	bl	8001d20 <MCAL_GPIO_Init>
}
 8002150:	bf00      	nop
 8002152:	3718      	adds	r7, #24
 8002154:	46bd      	mov	sp, r7
 8002156:	bd80      	pop	{r7, pc}
 8002158:	40013000 	.word	0x40013000
 800215c:	40010800 	.word	0x40010800
 8002160:	40010c00 	.word	0x40010c00
 8002164:	200000a4 	.word	0x200000a4

08002168 <MCAL_SPI_Init>:
* @return_value :   none.
* Note			:   none.
======================================================================================================================
*/
void MCAL_SPI_Init(volatile SPI_Typedef* SPIx, SPI_Config_t* config)
{
 8002168:	b590      	push	{r4, r7, lr}
 800216a:	b083      	sub	sp, #12
 800216c:	af00      	add	r7, sp, #0
 800216e:	6078      	str	r0, [r7, #4]
 8002170:	6039      	str	r1, [r7, #0]
    /*Activate the peripheral clock and save the config in a global variable to be used
        in other functions in the driver.*/
    if(SPIx == SPI1)
 8002172:	687b      	ldr	r3, [r7, #4]
 8002174:	4a34      	ldr	r2, [pc, #208]	; (8002248 <MCAL_SPI_Init+0xe0>)
 8002176:	4293      	cmp	r3, r2
 8002178:	d10e      	bne.n	8002198 <MCAL_SPI_Init+0x30>
    {
        APB2_PERI_CLOCK_EN(APB2_SPI1);
 800217a:	4b34      	ldr	r3, [pc, #208]	; (800224c <MCAL_SPI_Init+0xe4>)
 800217c:	699b      	ldr	r3, [r3, #24]
 800217e:	4a33      	ldr	r2, [pc, #204]	; (800224c <MCAL_SPI_Init+0xe4>)
 8002180:	f443 5380 	orr.w	r3, r3, #4096	; 0x1000
 8002184:	6193      	str	r3, [r2, #24]
        SPI_Config[SPI1_INDEX] = *config;
 8002186:	4a32      	ldr	r2, [pc, #200]	; (8002250 <MCAL_SPI_Init+0xe8>)
 8002188:	683b      	ldr	r3, [r7, #0]
 800218a:	4614      	mov	r4, r2
 800218c:	6818      	ldr	r0, [r3, #0]
 800218e:	6859      	ldr	r1, [r3, #4]
 8002190:	689a      	ldr	r2, [r3, #8]
 8002192:	68db      	ldr	r3, [r3, #12]
 8002194:	c40f      	stmia	r4!, {r0, r1, r2, r3}
 8002196:	e00f      	b.n	80021b8 <MCAL_SPI_Init+0x50>
    }else{
        APB1_PERI_CLOCK_EN(APB1_SPI2);
 8002198:	4b2c      	ldr	r3, [pc, #176]	; (800224c <MCAL_SPI_Init+0xe4>)
 800219a:	69db      	ldr	r3, [r3, #28]
 800219c:	4a2b      	ldr	r2, [pc, #172]	; (800224c <MCAL_SPI_Init+0xe4>)
 800219e:	f443 4380 	orr.w	r3, r3, #16384	; 0x4000
 80021a2:	61d3      	str	r3, [r2, #28]
        SPI_Config[SPI2_INDEX] = *config;
 80021a4:	4b2a      	ldr	r3, [pc, #168]	; (8002250 <MCAL_SPI_Init+0xe8>)
 80021a6:	683a      	ldr	r2, [r7, #0]
 80021a8:	f103 0410 	add.w	r4, r3, #16
 80021ac:	4613      	mov	r3, r2
 80021ae:	6818      	ldr	r0, [r3, #0]
 80021b0:	6859      	ldr	r1, [r3, #4]
 80021b2:	689a      	ldr	r2, [r3, #8]
 80021b4:	68db      	ldr	r3, [r3, #12]
 80021b6:	c40f      	stmia	r4!, {r0, r1, r2, r3}
    }

    SPIx->CR1 = 0;  /*Reset the Register to its original state*/
 80021b8:	687b      	ldr	r3, [r7, #4]
 80021ba:	2200      	movs	r2, #0
 80021bc:	601a      	str	r2, [r3, #0]
    /* Set LSBFirst bit according to SPI_BitOrder value */
    /* Set BR bits according to SPI_BR_Prescaler value */
    /* Set CPOL bit according to SPI_ClockPolarity value */
    /* Set CPHA bit according to SPI_ClockPhase value */

    SPIx->CR1 |= (config->SPI_Direction | config->SPI_Mode | config->SPI_BitOrder | 
 80021be:	687b      	ldr	r3, [r7, #4]
 80021c0:	681b      	ldr	r3, [r3, #0]
 80021c2:	683a      	ldr	r2, [r7, #0]
 80021c4:	8851      	ldrh	r1, [r2, #2]
 80021c6:	683a      	ldr	r2, [r7, #0]
 80021c8:	8812      	ldrh	r2, [r2, #0]
                  config->SPI_DataSize | config->SPI_BR_Prescaler | config->SPI_ClockPolarity |
 80021ca:	430a      	orrs	r2, r1
 80021cc:	b291      	uxth	r1, r2
    SPIx->CR1 |= (config->SPI_Direction | config->SPI_Mode | config->SPI_BitOrder | 
 80021ce:	683a      	ldr	r2, [r7, #0]
 80021d0:	88d2      	ldrh	r2, [r2, #6]
                  config->SPI_DataSize | config->SPI_BR_Prescaler | config->SPI_ClockPolarity |
 80021d2:	430a      	orrs	r2, r1
 80021d4:	b291      	uxth	r1, r2
 80021d6:	683a      	ldr	r2, [r7, #0]
 80021d8:	8892      	ldrh	r2, [r2, #4]
 80021da:	430a      	orrs	r2, r1
 80021dc:	b291      	uxth	r1, r2
 80021de:	683a      	ldr	r2, [r7, #0]
 80021e0:	89d2      	ldrh	r2, [r2, #14]
 80021e2:	430a      	orrs	r2, r1
 80021e4:	b291      	uxth	r1, r2
 80021e6:	683a      	ldr	r2, [r7, #0]
 80021e8:	8912      	ldrh	r2, [r2, #8]
 80021ea:	430a      	orrs	r2, r1
 80021ec:	b291      	uxth	r1, r2
                  config->SPI_ClockPhase);
 80021ee:	683a      	ldr	r2, [r7, #0]
 80021f0:	8952      	ldrh	r2, [r2, #10]
                  config->SPI_DataSize | config->SPI_BR_Prescaler | config->SPI_ClockPolarity |
 80021f2:	430a      	orrs	r2, r1
 80021f4:	b292      	uxth	r2, r2
    SPIx->CR1 |= (config->SPI_Direction | config->SPI_Mode | config->SPI_BitOrder | 
 80021f6:	431a      	orrs	r2, r3
 80021f8:	687b      	ldr	r3, [r7, #4]
 80021fa:	601a      	str	r2, [r3, #0]

    /*Configure the NSS bit according to SPI_NSS_Managment*/
    if(config->SPI_NSS_Managment == SPI_NSS_SW_SET || config->SPI_NSS_Managment == SPI_NSS_SW_RESET)
 80021fc:	683b      	ldr	r3, [r7, #0]
 80021fe:	899b      	ldrh	r3, [r3, #12]
 8002200:	f5b3 7f40 	cmp.w	r3, #768	; 0x300
 8002204:	d004      	beq.n	8002210 <MCAL_SPI_Init+0xa8>
 8002206:	683b      	ldr	r3, [r7, #0]
 8002208:	899b      	ldrh	r3, [r3, #12]
 800220a:	f5b3 7f00 	cmp.w	r3, #512	; 0x200
 800220e:	d107      	bne.n	8002220 <MCAL_SPI_Init+0xb8>
    {
        SPIx->CR1 |= config->SPI_NSS_Managment;
 8002210:	687b      	ldr	r3, [r7, #4]
 8002212:	681b      	ldr	r3, [r3, #0]
 8002214:	683a      	ldr	r2, [r7, #0]
 8002216:	8992      	ldrh	r2, [r2, #12]
 8002218:	431a      	orrs	r2, r3
 800221a:	687b      	ldr	r3, [r7, #4]
 800221c:	601a      	str	r2, [r3, #0]
 800221e:	e006      	b.n	800222e <MCAL_SPI_Init+0xc6>
    }else{
        SPIx->CR2 |= config->SPI_NSS_Managment;
 8002220:	687b      	ldr	r3, [r7, #4]
 8002222:	685b      	ldr	r3, [r3, #4]
 8002224:	683a      	ldr	r2, [r7, #0]
 8002226:	8992      	ldrh	r2, [r2, #12]
 8002228:	431a      	orrs	r2, r3
 800222a:	687b      	ldr	r3, [r7, #4]
 800222c:	605a      	str	r2, [r3, #4]
    }
    
    /*Enable the SPI*/
    SPIx->CR1 |= SPI_CR1_SPE_SET;
 800222e:	687b      	ldr	r3, [r7, #4]
 8002230:	681b      	ldr	r3, [r3, #0]
 8002232:	f043 0240 	orr.w	r2, r3, #64	; 0x40
 8002236:	687b      	ldr	r3, [r7, #4]
 8002238:	601a      	str	r2, [r3, #0]

    /*Set the GPIO pins for the SPI*/
    MCAL_SPI_GPIO_Set_Pins(SPIx);
 800223a:	6878      	ldr	r0, [r7, #4]
 800223c:	f7ff feb0 	bl	8001fa0 <MCAL_SPI_GPIO_Set_Pins>
}
 8002240:	bf00      	nop
 8002242:	370c      	adds	r7, #12
 8002244:	46bd      	mov	sp, r7
 8002246:	bd90      	pop	{r4, r7, pc}
 8002248:	40013000 	.word	0x40013000
 800224c:	40021000 	.word	0x40021000
 8002250:	200000a4 	.word	0x200000a4

08002254 <MCAL_SPI_SendData>:
* @return_value :   none.
* Note			:   none.
======================================================================================================================
*/
void MCAL_SPI_SendData(volatile SPI_Typedef* SPIx, uint16* pTxBuffer, enum Polling_mechanism polling)
{
 8002254:	b480      	push	{r7}
 8002256:	b087      	sub	sp, #28
 8002258:	af00      	add	r7, sp, #0
 800225a:	60f8      	str	r0, [r7, #12]
 800225c:	60b9      	str	r1, [r7, #8]
 800225e:	4613      	mov	r3, r2
 8002260:	71fb      	strb	r3, [r7, #7]
    uint8 index;
    index = (SPIx == SPI1)? SPI1_INDEX : SPI2_INDEX;
 8002262:	68fb      	ldr	r3, [r7, #12]
 8002264:	4a15      	ldr	r2, [pc, #84]	; (80022bc <MCAL_SPI_SendData+0x68>)
 8002266:	4293      	cmp	r3, r2
 8002268:	bf14      	ite	ne
 800226a:	2301      	movne	r3, #1
 800226c:	2300      	moveq	r3, #0
 800226e:	b2db      	uxtb	r3, r3
 8002270:	75fb      	strb	r3, [r7, #23]
    
    if(polling == PollingEnable)
 8002272:	79fb      	ldrb	r3, [r7, #7]
 8002274:	2b00      	cmp	r3, #0
 8002276:	d106      	bne.n	8002286 <MCAL_SPI_SendData+0x32>
    {
        /*Loop as long as the TXE flag is zero*/
        while(!(SPIx->SR & SPI_SR_TXE));
 8002278:	bf00      	nop
 800227a:	68fb      	ldr	r3, [r7, #12]
 800227c:	689b      	ldr	r3, [r3, #8]
 800227e:	f003 0302 	and.w	r3, r3, #2
 8002282:	2b00      	cmp	r3, #0
 8002284:	d0f9      	beq.n	800227a <MCAL_SPI_SendData+0x26>
    }
    
    /*Send normally if you are in full duplex mode or half duplex transmit mode*/
    if(SPI_Config[index].SPI_Direction == SPI_DIRECTION_2LINES_FULL_DUPLEX || 
 8002286:	7dfb      	ldrb	r3, [r7, #23]
 8002288:	4a0d      	ldr	r2, [pc, #52]	; (80022c0 <MCAL_SPI_SendData+0x6c>)
 800228a:	011b      	lsls	r3, r3, #4
 800228c:	4413      	add	r3, r2
 800228e:	3302      	adds	r3, #2
 8002290:	881b      	ldrh	r3, [r3, #0]
 8002292:	2b00      	cmp	r3, #0
 8002294:	d008      	beq.n	80022a8 <MCAL_SPI_SendData+0x54>
        SPI_Config[index].SPI_Direction == SPI_DIRECTION_1LINE_TX)
 8002296:	7dfb      	ldrb	r3, [r7, #23]
 8002298:	4a09      	ldr	r2, [pc, #36]	; (80022c0 <MCAL_SPI_SendData+0x6c>)
 800229a:	011b      	lsls	r3, r3, #4
 800229c:	4413      	add	r3, r2
 800229e:	3302      	adds	r3, #2
 80022a0:	881b      	ldrh	r3, [r3, #0]
    if(SPI_Config[index].SPI_Direction == SPI_DIRECTION_2LINES_FULL_DUPLEX || 
 80022a2:	f5b3 4f40 	cmp.w	r3, #49152	; 0xc000
 80022a6:	d104      	bne.n	80022b2 <MCAL_SPI_SendData+0x5e>
    {
        SPIx->DR = *pTxBuffer;
 80022a8:	68bb      	ldr	r3, [r7, #8]
 80022aa:	881b      	ldrh	r3, [r3, #0]
 80022ac:	461a      	mov	r2, r3
 80022ae:	68fb      	ldr	r3, [r7, #12]
 80022b0:	60da      	str	r2, [r3, #12]
    }else 
    {

    }
    
}
 80022b2:	bf00      	nop
 80022b4:	371c      	adds	r7, #28
 80022b6:	46bd      	mov	sp, r7
 80022b8:	bc80      	pop	{r7}
 80022ba:	4770      	bx	lr
 80022bc:	40013000 	.word	0x40013000
 80022c0:	200000a4 	.word	0x200000a4

080022c4 <MCAL_SPI_ReceiveData>:
* @return_value :   none.
* Note			:   none.
======================================================================================================================
*/
void MCAL_SPI_ReceiveData(volatile SPI_Typedef* SPIx, uint16* pRxBuffer, enum Polling_mechanism polling)
{
 80022c4:	b480      	push	{r7}
 80022c6:	b087      	sub	sp, #28
 80022c8:	af00      	add	r7, sp, #0
 80022ca:	60f8      	str	r0, [r7, #12]
 80022cc:	60b9      	str	r1, [r7, #8]
 80022ce:	4613      	mov	r3, r2
 80022d0:	71fb      	strb	r3, [r7, #7]
    uint8 index;
    index = (SPIx == SPI1)? SPI1_INDEX : SPI2_INDEX;
 80022d2:	68fb      	ldr	r3, [r7, #12]
 80022d4:	4a1a      	ldr	r2, [pc, #104]	; (8002340 <MCAL_SPI_ReceiveData+0x7c>)
 80022d6:	4293      	cmp	r3, r2
 80022d8:	bf14      	ite	ne
 80022da:	2301      	movne	r3, #1
 80022dc:	2300      	moveq	r3, #0
 80022de:	b2db      	uxtb	r3, r3
 80022e0:	75fb      	strb	r3, [r7, #23]

    if(polling == PollingEnable)
 80022e2:	79fb      	ldrb	r3, [r7, #7]
 80022e4:	2b00      	cmp	r3, #0
 80022e6:	d106      	bne.n	80022f6 <MCAL_SPI_ReceiveData+0x32>
    {
        /*Loop as long as the TXE flag is zero*/
        while(!(SPIx->SR & SPI_SR_RXNE));
 80022e8:	bf00      	nop
 80022ea:	68fb      	ldr	r3, [r7, #12]
 80022ec:	689b      	ldr	r3, [r3, #8]
 80022ee:	f003 0301 	and.w	r3, r3, #1
 80022f2:	2b00      	cmp	r3, #0
 80022f4:	d0f9      	beq.n	80022ea <MCAL_SPI_ReceiveData+0x26>
    }

     /*Receive normally if you are in full duplex mode or half duplex receive mode*/
    if(SPI_Config[index].SPI_Direction == SPI_DIRECTION_2LINES_FULL_DUPLEX || 
 80022f6:	7dfb      	ldrb	r3, [r7, #23]
 80022f8:	4a12      	ldr	r2, [pc, #72]	; (8002344 <MCAL_SPI_ReceiveData+0x80>)
 80022fa:	011b      	lsls	r3, r3, #4
 80022fc:	4413      	add	r3, r2
 80022fe:	3302      	adds	r3, #2
 8002300:	881b      	ldrh	r3, [r3, #0]
 8002302:	2b00      	cmp	r3, #0
 8002304:	d011      	beq.n	800232a <MCAL_SPI_ReceiveData+0x66>
        SPI_Config[index].SPI_Direction == SPI_DIRECTION_1LINE_RX ||
 8002306:	7dfb      	ldrb	r3, [r7, #23]
 8002308:	4a0e      	ldr	r2, [pc, #56]	; (8002344 <MCAL_SPI_ReceiveData+0x80>)
 800230a:	011b      	lsls	r3, r3, #4
 800230c:	4413      	add	r3, r2
 800230e:	3302      	adds	r3, #2
 8002310:	881b      	ldrh	r3, [r3, #0]
    if(SPI_Config[index].SPI_Direction == SPI_DIRECTION_2LINES_FULL_DUPLEX || 
 8002312:	f5b3 4f00 	cmp.w	r3, #32768	; 0x8000
 8002316:	d008      	beq.n	800232a <MCAL_SPI_ReceiveData+0x66>
        SPI_Config[index].SPI_Direction == SPI_DIRECTION_2LINES_RX_ONLY)
 8002318:	7dfb      	ldrb	r3, [r7, #23]
 800231a:	4a0a      	ldr	r2, [pc, #40]	; (8002344 <MCAL_SPI_ReceiveData+0x80>)
 800231c:	011b      	lsls	r3, r3, #4
 800231e:	4413      	add	r3, r2
 8002320:	3302      	adds	r3, #2
 8002322:	881b      	ldrh	r3, [r3, #0]
        SPI_Config[index].SPI_Direction == SPI_DIRECTION_1LINE_RX ||
 8002324:	f5b3 6f80 	cmp.w	r3, #1024	; 0x400
 8002328:	d104      	bne.n	8002334 <MCAL_SPI_ReceiveData+0x70>
    {
        *pRxBuffer = SPIx->DR;
 800232a:	68fb      	ldr	r3, [r7, #12]
 800232c:	68db      	ldr	r3, [r3, #12]
 800232e:	b29a      	uxth	r2, r3
 8002330:	68bb      	ldr	r3, [r7, #8]
 8002332:	801a      	strh	r2, [r3, #0]
    }else
    {
       
    }
}
 8002334:	bf00      	nop
 8002336:	371c      	adds	r7, #28
 8002338:	46bd      	mov	sp, r7
 800233a:	bc80      	pop	{r7}
 800233c:	4770      	bx	lr
 800233e:	bf00      	nop
 8002340:	40013000 	.word	0x40013000
 8002344:	200000a4 	.word	0x200000a4

08002348 <MCAL_SPI_ExchangeData>:
* @return_value :   none.
* Note			:   This function works with polling mechanism.
======================================================================================================================
*/
void MCAL_SPI_ExchangeData(volatile SPI_Typedef* SPIx, uint16* pBuffer)
{
 8002348:	b480      	push	{r7}
 800234a:	b083      	sub	sp, #12
 800234c:	af00      	add	r7, sp, #0
 800234e:	6078      	str	r0, [r7, #4]
 8002350:	6039      	str	r1, [r7, #0]
   
    /*Loop as long as the TXE flag is zero*/
    while(!(SPIx->SR & SPI_SR_TXE));
 8002352:	bf00      	nop
 8002354:	687b      	ldr	r3, [r7, #4]
 8002356:	689b      	ldr	r3, [r3, #8]
 8002358:	f003 0302 	and.w	r3, r3, #2
 800235c:	2b00      	cmp	r3, #0
 800235e:	d0f9      	beq.n	8002354 <MCAL_SPI_ExchangeData+0xc>
    

    SPIx->DR = *pBuffer;
 8002360:	683b      	ldr	r3, [r7, #0]
 8002362:	881b      	ldrh	r3, [r3, #0]
 8002364:	461a      	mov	r2, r3
 8002366:	687b      	ldr	r3, [r7, #4]
 8002368:	60da      	str	r2, [r3, #12]

    /*Loop as long as the TXE flag is zero*/
    while(!(SPIx->SR & SPI_SR_RXNE));
 800236a:	bf00      	nop
 800236c:	687b      	ldr	r3, [r7, #4]
 800236e:	689b      	ldr	r3, [r3, #8]
 8002370:	f003 0301 	and.w	r3, r3, #1
 8002374:	2b00      	cmp	r3, #0
 8002376:	d0f9      	beq.n	800236c <MCAL_SPI_ExchangeData+0x24>
    

    *pBuffer = SPIx->DR;
 8002378:	687b      	ldr	r3, [r7, #4]
 800237a:	68db      	ldr	r3, [r3, #12]
 800237c:	b29a      	uxth	r2, r3
 800237e:	683b      	ldr	r3, [r7, #0]
 8002380:	801a      	strh	r2, [r3, #0]
}
 8002382:	bf00      	nop
 8002384:	370c      	adds	r7, #12
 8002386:	46bd      	mov	sp, r7
 8002388:	bc80      	pop	{r7}
 800238a:	4770      	bx	lr

0800238c <MCAL_SPI_Interrupt_EN>:
* @return_value :   none.
* Note			:   none.
======================================================================================================================
*/
void MCAL_SPI_Interrupt_EN(volatile SPI_Typedef * SPIx, uint8 IRQ, void (* p_IRQ_callback)(void))
{
 800238c:	b580      	push	{r7, lr}
 800238e:	b084      	sub	sp, #16
 8002390:	af00      	add	r7, sp, #0
 8002392:	60f8      	str	r0, [r7, #12]
 8002394:	460b      	mov	r3, r1
 8002396:	607a      	str	r2, [r7, #4]
 8002398:	72fb      	strb	r3, [r7, #11]
    if(SPIx == SPI1)
 800239a:	68fb      	ldr	r3, [r7, #12]
 800239c:	4a11      	ldr	r2, [pc, #68]	; (80023e4 <MCAL_SPI_Interrupt_EN+0x58>)
 800239e:	4293      	cmp	r3, r2
 80023a0:	d10b      	bne.n	80023ba <MCAL_SPI_Interrupt_EN+0x2e>
    {
        MCAL_NVIC_EnableIRQ(NVIC_SPI1_IVT_INDEX);
 80023a2:	2023      	movs	r0, #35	; 0x23
 80023a4:	f7ff fd53 	bl	8001e4e <MCAL_NVIC_EnableIRQ>
        p_IRQ_callback_SPI1[IRQ >> 6] = p_IRQ_callback;
 80023a8:	7afb      	ldrb	r3, [r7, #11]
 80023aa:	099b      	lsrs	r3, r3, #6
 80023ac:	b2db      	uxtb	r3, r3
 80023ae:	4619      	mov	r1, r3
 80023b0:	4a0d      	ldr	r2, [pc, #52]	; (80023e8 <MCAL_SPI_Interrupt_EN+0x5c>)
 80023b2:	687b      	ldr	r3, [r7, #4]
 80023b4:	f842 3021 	str.w	r3, [r2, r1, lsl #2]
 80023b8:	e00a      	b.n	80023d0 <MCAL_SPI_Interrupt_EN+0x44>
    }else{
        MCAL_NVIC_EnableIRQ(NVIC_SPI2_IVT_INDEX);
 80023ba:	2024      	movs	r0, #36	; 0x24
 80023bc:	f7ff fd47 	bl	8001e4e <MCAL_NVIC_EnableIRQ>
        p_IRQ_callback_SPI2[IRQ >> 6] = p_IRQ_callback;
 80023c0:	7afb      	ldrb	r3, [r7, #11]
 80023c2:	099b      	lsrs	r3, r3, #6
 80023c4:	b2db      	uxtb	r3, r3
 80023c6:	4619      	mov	r1, r3
 80023c8:	4a08      	ldr	r2, [pc, #32]	; (80023ec <MCAL_SPI_Interrupt_EN+0x60>)
 80023ca:	687b      	ldr	r3, [r7, #4]
 80023cc:	f842 3021 	str.w	r3, [r2, r1, lsl #2]
    }

    /*Enable the Interrupt in CR2*/
    SPIx->CR2 |= IRQ;
 80023d0:	68fb      	ldr	r3, [r7, #12]
 80023d2:	685a      	ldr	r2, [r3, #4]
 80023d4:	7afb      	ldrb	r3, [r7, #11]
 80023d6:	431a      	orrs	r2, r3
 80023d8:	68fb      	ldr	r3, [r7, #12]
 80023da:	605a      	str	r2, [r3, #4]
}
 80023dc:	bf00      	nop
 80023de:	3710      	adds	r7, #16
 80023e0:	46bd      	mov	sp, r7
 80023e2:	bd80      	pop	{r7, pc}
 80023e4:	40013000 	.word	0x40013000
 80023e8:	200000c4 	.word	0x200000c4
 80023ec:	200000d0 	.word	0x200000d0

080023f0 <MCAL_SPI_Interrupt_Disable>:
* @return_value :   none.
* Note			:   This function won't disable the SPI instance interrupt in NVIC you have to manually disable it.
======================================================================================================================
*/
void MCAL_SPI_Interrupt_Disable(volatile SPI_Typedef * SPIx, uint8 IRQ)
{
 80023f0:	b580      	push	{r7, lr}
 80023f2:	b082      	sub	sp, #8
 80023f4:	af00      	add	r7, sp, #0
 80023f6:	6078      	str	r0, [r7, #4]
 80023f8:	460b      	mov	r3, r1
 80023fa:	70fb      	strb	r3, [r7, #3]
    if(SPIx == SPI1)
 80023fc:	687b      	ldr	r3, [r7, #4]
 80023fe:	4a0a      	ldr	r2, [pc, #40]	; (8002428 <MCAL_SPI_Interrupt_Disable+0x38>)
 8002400:	4293      	cmp	r3, r2
 8002402:	d103      	bne.n	800240c <MCAL_SPI_Interrupt_Disable+0x1c>
    {
        MCAL_NVIC_EnableIRQ(NVIC_SPI1_IVT_INDEX);
 8002404:	2023      	movs	r0, #35	; 0x23
 8002406:	f7ff fd22 	bl	8001e4e <MCAL_NVIC_EnableIRQ>
 800240a:	e002      	b.n	8002412 <MCAL_SPI_Interrupt_Disable+0x22>
    }else{
        MCAL_NVIC_EnableIRQ(NVIC_SPI2_IVT_INDEX);
 800240c:	2024      	movs	r0, #36	; 0x24
 800240e:	f7ff fd1e 	bl	8001e4e <MCAL_NVIC_EnableIRQ>
    }

    /*Enable the Interrupt in CR2*/
    SPIx->CR2 &= ~(IRQ);
 8002412:	687b      	ldr	r3, [r7, #4]
 8002414:	685b      	ldr	r3, [r3, #4]
 8002416:	78fa      	ldrb	r2, [r7, #3]
 8002418:	43d2      	mvns	r2, r2
 800241a:	401a      	ands	r2, r3
 800241c:	687b      	ldr	r3, [r7, #4]
 800241e:	605a      	str	r2, [r3, #4]
}
 8002420:	bf00      	nop
 8002422:	3708      	adds	r7, #8
 8002424:	46bd      	mov	sp, r7
 8002426:	bd80      	pop	{r7, pc}
 8002428:	40013000 	.word	0x40013000

0800242c <SPI1_IRQHandler>:
*               SPI ISR functions
*===============================================
*/

void SPI1_IRQHandler(void)
{
 800242c:	b580      	push	{r7, lr}
 800242e:	af00      	add	r7, sp, #0
    if((SPI1->CR2 & SPI_IRQ_ERRIE) && ((SPI1->SR & SPI_SR_OVR) || (SPI1->SR & SPI_SR_MODF)))
 8002430:	4b1a      	ldr	r3, [pc, #104]	; (800249c <SPI1_IRQHandler+0x70>)
 8002432:	685b      	ldr	r3, [r3, #4]
 8002434:	f003 0320 	and.w	r3, r3, #32
 8002438:	2b00      	cmp	r3, #0
 800243a:	d00e      	beq.n	800245a <SPI1_IRQHandler+0x2e>
 800243c:	4b17      	ldr	r3, [pc, #92]	; (800249c <SPI1_IRQHandler+0x70>)
 800243e:	689b      	ldr	r3, [r3, #8]
 8002440:	f003 0340 	and.w	r3, r3, #64	; 0x40
 8002444:	2b00      	cmp	r3, #0
 8002446:	d105      	bne.n	8002454 <SPI1_IRQHandler+0x28>
 8002448:	4b14      	ldr	r3, [pc, #80]	; (800249c <SPI1_IRQHandler+0x70>)
 800244a:	689b      	ldr	r3, [r3, #8]
 800244c:	f003 0320 	and.w	r3, r3, #32
 8002450:	2b00      	cmp	r3, #0
 8002452:	d002      	beq.n	800245a <SPI1_IRQHandler+0x2e>
    {
        p_IRQ_callback_SPI1[SPI_IRQ_ERRIE >> 6]();
 8002454:	4b12      	ldr	r3, [pc, #72]	; (80024a0 <SPI1_IRQHandler+0x74>)
 8002456:	681b      	ldr	r3, [r3, #0]
 8002458:	4798      	blx	r3
    }

    if((SPI1->CR2 & SPI_IRQ_RXNEIE) && (SPI1->SR & SPI_SR_RXNE))
 800245a:	4b10      	ldr	r3, [pc, #64]	; (800249c <SPI1_IRQHandler+0x70>)
 800245c:	685b      	ldr	r3, [r3, #4]
 800245e:	f003 0340 	and.w	r3, r3, #64	; 0x40
 8002462:	2b00      	cmp	r3, #0
 8002464:	d008      	beq.n	8002478 <SPI1_IRQHandler+0x4c>
 8002466:	4b0d      	ldr	r3, [pc, #52]	; (800249c <SPI1_IRQHandler+0x70>)
 8002468:	689b      	ldr	r3, [r3, #8]
 800246a:	f003 0301 	and.w	r3, r3, #1
 800246e:	2b00      	cmp	r3, #0
 8002470:	d002      	beq.n	8002478 <SPI1_IRQHandler+0x4c>
    {
        p_IRQ_callback_SPI1[SPI_IRQ_RXNEIE >> 6]();
 8002472:	4b0b      	ldr	r3, [pc, #44]	; (80024a0 <SPI1_IRQHandler+0x74>)
 8002474:	685b      	ldr	r3, [r3, #4]
 8002476:	4798      	blx	r3
    }
    
    if((SPI1->CR2 & SPI_IRQ_TXEIE) && (SPI1->SR & SPI_SR_TXE))
 8002478:	4b08      	ldr	r3, [pc, #32]	; (800249c <SPI1_IRQHandler+0x70>)
 800247a:	685b      	ldr	r3, [r3, #4]
 800247c:	f003 0380 	and.w	r3, r3, #128	; 0x80
 8002480:	2b00      	cmp	r3, #0
 8002482:	d008      	beq.n	8002496 <SPI1_IRQHandler+0x6a>
 8002484:	4b05      	ldr	r3, [pc, #20]	; (800249c <SPI1_IRQHandler+0x70>)
 8002486:	689b      	ldr	r3, [r3, #8]
 8002488:	f003 0302 	and.w	r3, r3, #2
 800248c:	2b00      	cmp	r3, #0
 800248e:	d002      	beq.n	8002496 <SPI1_IRQHandler+0x6a>
    {
        p_IRQ_callback_SPI1[SPI_IRQ_TXEIE >> 6]();
 8002490:	4b03      	ldr	r3, [pc, #12]	; (80024a0 <SPI1_IRQHandler+0x74>)
 8002492:	689b      	ldr	r3, [r3, #8]
 8002494:	4798      	blx	r3
    }
}
 8002496:	bf00      	nop
 8002498:	bd80      	pop	{r7, pc}
 800249a:	bf00      	nop
 800249c:	40013000 	.word	0x40013000
 80024a0:	200000c4 	.word	0x200000c4

080024a4 <SPI2_IRQHandler>:

void SPI2_IRQHandler(void)
{
 80024a4:	b580      	push	{r7, lr}
 80024a6:	af00      	add	r7, sp, #0
    if((SPI2->CR2 & SPI_IRQ_ERRIE) && ((SPI2->SR & SPI_SR_OVR) || (SPI2->SR & SPI_SR_MODF)))
 80024a8:	4b1a      	ldr	r3, [pc, #104]	; (8002514 <SPI2_IRQHandler+0x70>)
 80024aa:	685b      	ldr	r3, [r3, #4]
 80024ac:	f003 0320 	and.w	r3, r3, #32
 80024b0:	2b00      	cmp	r3, #0
 80024b2:	d00e      	beq.n	80024d2 <SPI2_IRQHandler+0x2e>
 80024b4:	4b17      	ldr	r3, [pc, #92]	; (8002514 <SPI2_IRQHandler+0x70>)
 80024b6:	689b      	ldr	r3, [r3, #8]
 80024b8:	f003 0340 	and.w	r3, r3, #64	; 0x40
 80024bc:	2b00      	cmp	r3, #0
 80024be:	d105      	bne.n	80024cc <SPI2_IRQHandler+0x28>
 80024c0:	4b14      	ldr	r3, [pc, #80]	; (8002514 <SPI2_IRQHandler+0x70>)
 80024c2:	689b      	ldr	r3, [r3, #8]
 80024c4:	f003 0320 	and.w	r3, r3, #32
 80024c8:	2b00      	cmp	r3, #0
 80024ca:	d002      	beq.n	80024d2 <SPI2_IRQHandler+0x2e>
    {
        p_IRQ_callback_SPI2[SPI_IRQ_ERRIE >> 6]();
 80024cc:	4b12      	ldr	r3, [pc, #72]	; (8002518 <SPI2_IRQHandler+0x74>)
 80024ce:	681b      	ldr	r3, [r3, #0]
 80024d0:	4798      	blx	r3
    }

    if((SPI2->CR2 & SPI_IRQ_RXNEIE) && (SPI2->SR & SPI_SR_RXNE))
 80024d2:	4b10      	ldr	r3, [pc, #64]	; (8002514 <SPI2_IRQHandler+0x70>)
 80024d4:	685b      	ldr	r3, [r3, #4]
 80024d6:	f003 0340 	and.w	r3, r3, #64	; 0x40
 80024da:	2b00      	cmp	r3, #0
 80024dc:	d008      	beq.n	80024f0 <SPI2_IRQHandler+0x4c>
 80024de:	4b0d      	ldr	r3, [pc, #52]	; (8002514 <SPI2_IRQHandler+0x70>)
 80024e0:	689b      	ldr	r3, [r3, #8]
 80024e2:	f003 0301 	and.w	r3, r3, #1
 80024e6:	2b00      	cmp	r3, #0
 80024e8:	d002      	beq.n	80024f0 <SPI2_IRQHandler+0x4c>
    {
        p_IRQ_callback_SPI2[SPI_IRQ_RXNEIE >> 6]();
 80024ea:	4b0b      	ldr	r3, [pc, #44]	; (8002518 <SPI2_IRQHandler+0x74>)
 80024ec:	685b      	ldr	r3, [r3, #4]
 80024ee:	4798      	blx	r3
    }
    
    if((SPI2->CR2 & SPI_IRQ_TXEIE) && (SPI2->SR & SPI_SR_TXE))
 80024f0:	4b08      	ldr	r3, [pc, #32]	; (8002514 <SPI2_IRQHandler+0x70>)
 80024f2:	685b      	ldr	r3, [r3, #4]
 80024f4:	f003 0380 	and.w	r3, r3, #128	; 0x80
 80024f8:	2b00      	cmp	r3, #0
 80024fa:	d008      	beq.n	800250e <SPI2_IRQHandler+0x6a>
 80024fc:	4b05      	ldr	r3, [pc, #20]	; (8002514 <SPI2_IRQHandler+0x70>)
 80024fe:	689b      	ldr	r3, [r3, #8]
 8002500:	f003 0302 	and.w	r3, r3, #2
 8002504:	2b00      	cmp	r3, #0
 8002506:	d002      	beq.n	800250e <SPI2_IRQHandler+0x6a>
    {
        p_IRQ_callback_SPI2[SPI_IRQ_TXEIE >> 6]();
 8002508:	4b03      	ldr	r3, [pc, #12]	; (8002518 <SPI2_IRQHandler+0x74>)
 800250a:	689b      	ldr	r3, [r3, #8]
 800250c:	4798      	blx	r3
    }
}
 800250e:	bf00      	nop
 8002510:	bd80      	pop	{r7, pc}
 8002512:	bf00      	nop
 8002514:	40003800 	.word	0x40003800
 8002518:	200000d0 	.word	0x200000d0

0800251c <MCAL_SYST_CalculateCLKFreq>:
===============================================
*       Local Functions
*===============================================
*/
static uint32 MCAL_SYST_CalculateCLKFreq(uint32 copy_TimeUnit)
{
 800251c:	b580      	push	{r7, lr}
 800251e:	b084      	sub	sp, #16
 8002520:	af00      	add	r7, sp, #0
 8002522:	6078      	str	r0, [r7, #4]
    uint32 LOC_SYST_Clk = 0;
 8002524:	2300      	movs	r3, #0
 8002526:	60fb      	str	r3, [r7, #12]
    
    /*Calculates the clock of the systick timer*/
    #if SYST_CLKSRC == SYST_INTERNAL_CLK_DIV_1
        LOC_SYST_Clk = MCAL_RCC_GET_SYSCLK();
 8002528:	f7ff fd14 	bl	8001f54 <MCAL_RCC_GET_SYSCLK>
 800252c:	60f8      	str	r0, [r7, #12]
    #else
        #error "Please choose an acceptable clock source"
    #endif

    /*Divide by the time unit to avoid doing floating point operations*/
    LOC_SYST_Clk /= copy_TimeUnit;  
 800252e:	68fa      	ldr	r2, [r7, #12]
 8002530:	687b      	ldr	r3, [r7, #4]
 8002532:	fbb2 f3f3 	udiv	r3, r2, r3
 8002536:	60fb      	str	r3, [r7, #12]

    return LOC_SYST_Clk;
 8002538:	68fb      	ldr	r3, [r7, #12]
}
 800253a:	4618      	mov	r0, r3
 800253c:	3710      	adds	r7, #16
 800253e:	46bd      	mov	sp, r7
 8002540:	bd80      	pop	{r7, pc}
	...

08002544 <MCAL_SYST_Init>:
* @return       :    E_OK on success, E_NOK on failure..
* @note			:   Actual timer duration is based on the clock frequency.
======================================================================================================================
*/
eStatus_t MCAL_SYST_Init(uint32 copy_ReloadVal)
{
 8002544:	b580      	push	{r7, lr}
 8002546:	b084      	sub	sp, #16
 8002548:	af00      	add	r7, sp, #0
 800254a:	6078      	str	r0, [r7, #4]
    eStatus_t LOC_estatus = E_OK;
 800254c:	2300      	movs	r3, #0
 800254e:	73fb      	strb	r3, [r7, #15]
    
    if((SYST_ASSERT_RELOAD_VALUE(copy_ReloadVal)) &&
 8002550:	687b      	ldr	r3, [r7, #4]
 8002552:	f1b3 7f80 	cmp.w	r3, #16777216	; 0x1000000
 8002556:	d217      	bcs.n	8002588 <MCAL_SYST_Init+0x44>
       (SYST_ASSERT_CLK(SYST_CLKSRC)) && (SYST_ASSERT_TICKINT(SYST_TICKINT)))
    {
        /*Disable the systick timer*/
        MCAL_SYST_Stop();
 8002558:	f000 f82e 	bl	80025b8 <MCAL_SYST_Stop>
        
        /*1. Program reload value.*/
        SYST->RVR = copy_ReloadVal;
 800255c:	4a0e      	ldr	r2, [pc, #56]	; (8002598 <MCAL_SYST_Init+0x54>)
 800255e:	687b      	ldr	r3, [r7, #4]
 8002560:	6053      	str	r3, [r2, #4]
        
        /*2. Clear current value.
            A write of any value clears the field to 0,
            and also clears the SYST_CSR COUNTFLAG bit to 0.
        */
        SYST->CVR = 0;
 8002562:	4b0d      	ldr	r3, [pc, #52]	; (8002598 <MCAL_SYST_Init+0x54>)
 8002564:	2200      	movs	r2, #0
 8002566:	609a      	str	r2, [r3, #8]

        /*3. Program Control and Status register.*/
        SYST->CSR |= (SYST->CSR & ~(SYST_CSR_CLKSRC_MASK | SYST_CSR_TICKINT_MASK)); /*Clear the CLKSRC and TICKINT bits*/
 8002568:	4b0b      	ldr	r3, [pc, #44]	; (8002598 <MCAL_SYST_Init+0x54>)
 800256a:	681b      	ldr	r3, [r3, #0]
 800256c:	f023 0206 	bic.w	r2, r3, #6
 8002570:	4b09      	ldr	r3, [pc, #36]	; (8002598 <MCAL_SYST_Init+0x54>)
 8002572:	681b      	ldr	r3, [r3, #0]
 8002574:	4908      	ldr	r1, [pc, #32]	; (8002598 <MCAL_SYST_Init+0x54>)
 8002576:	4313      	orrs	r3, r2
 8002578:	600b      	str	r3, [r1, #0]
        SYST->CSR |= (SYST_CLKSRC | SYST_TICKINT);
 800257a:	4b07      	ldr	r3, [pc, #28]	; (8002598 <MCAL_SYST_Init+0x54>)
 800257c:	681b      	ldr	r3, [r3, #0]
 800257e:	4a06      	ldr	r2, [pc, #24]	; (8002598 <MCAL_SYST_Init+0x54>)
 8002580:	f043 0306 	orr.w	r3, r3, #6
 8002584:	6013      	str	r3, [r2, #0]
 8002586:	e001      	b.n	800258c <MCAL_SYST_Init+0x48>
    }else{
        LOC_estatus = E_NOK;
 8002588:	2301      	movs	r3, #1
 800258a:	73fb      	strb	r3, [r7, #15]
    }

    return LOC_estatus;
 800258c:	7bfb      	ldrb	r3, [r7, #15]
}
 800258e:	4618      	mov	r0, r3
 8002590:	3710      	adds	r7, #16
 8002592:	46bd      	mov	sp, r7
 8002594:	bd80      	pop	{r7, pc}
 8002596:	bf00      	nop
 8002598:	e000e010 	.word	0xe000e010

0800259c <MCAL_SYST_Start>:
* @return       :   none.
* @note			:   none.
======================================================================================================================
*/
void MCAL_SYST_Start(void)
{
 800259c:	b480      	push	{r7}
 800259e:	af00      	add	r7, sp, #0
    SYST->CSR |= SYST_CSR_EN_MASK;
 80025a0:	4b04      	ldr	r3, [pc, #16]	; (80025b4 <MCAL_SYST_Start+0x18>)
 80025a2:	681b      	ldr	r3, [r3, #0]
 80025a4:	4a03      	ldr	r2, [pc, #12]	; (80025b4 <MCAL_SYST_Start+0x18>)
 80025a6:	f043 0301 	orr.w	r3, r3, #1
 80025aa:	6013      	str	r3, [r2, #0]
}
 80025ac:	bf00      	nop
 80025ae:	46bd      	mov	sp, r7
 80025b0:	bc80      	pop	{r7}
 80025b2:	4770      	bx	lr
 80025b4:	e000e010 	.word	0xe000e010

080025b8 <MCAL_SYST_Stop>:
* @return       :   none.
* @note			:   none.
======================================================================================================================
*/
void MCAL_SYST_Stop(void)
{
 80025b8:	b480      	push	{r7}
 80025ba:	af00      	add	r7, sp, #0
    SYST->CSR &= ~SYST_CSR_EN_MASK;
 80025bc:	4b04      	ldr	r3, [pc, #16]	; (80025d0 <MCAL_SYST_Stop+0x18>)
 80025be:	681b      	ldr	r3, [r3, #0]
 80025c0:	4a03      	ldr	r2, [pc, #12]	; (80025d0 <MCAL_SYST_Stop+0x18>)
 80025c2:	f023 0301 	bic.w	r3, r3, #1
 80025c6:	6013      	str	r3, [r2, #0]
}
 80025c8:	bf00      	nop
 80025ca:	46bd      	mov	sp, r7
 80025cc:	bc80      	pop	{r7}
 80025ce:	4770      	bx	lr
 80025d0:	e000e010 	.word	0xe000e010

080025d4 <MCAL_SYST_SetIntervalPeriodic>:
* @return       :   E_OK on success, E_NOK on failure.
* @note			:   none.
======================================================================================================================
*/
eStatus_t MCAL_SYST_SetIntervalPeriodic(uint32 copy_Microseconds, fptr_Callback callback)
{
 80025d4:	b590      	push	{r4, r7, lr}
 80025d6:	b089      	sub	sp, #36	; 0x24
 80025d8:	af00      	add	r7, sp, #0
 80025da:	6078      	str	r0, [r7, #4]
 80025dc:	6039      	str	r1, [r7, #0]
    eStatus_t LOC_eStatus = E_OK;
 80025de:	2300      	movs	r3, #0
 80025e0:	77fb      	strb	r3, [r7, #31]
    uint64 LOC_u32TicksCount = 0;
 80025e2:	f04f 0300 	mov.w	r3, #0
 80025e6:	f04f 0400 	mov.w	r4, #0
 80025ea:	e9c7 3404 	strd	r3, r4, [r7, #16]
    uint32 LOC_SYST_Clk = 0;
 80025ee:	2300      	movs	r3, #0
 80025f0:	60fb      	str	r3, [r7, #12]
    
    LOC_SYST_Clk = MCAL_SYST_CalculateCLKFreq(SYST_DELAY_US);
 80025f2:	4819      	ldr	r0, [pc, #100]	; (8002658 <MCAL_SYST_SetIntervalPeriodic+0x84>)
 80025f4:	f7ff ff92 	bl	800251c <MCAL_SYST_CalculateCLKFreq>
 80025f8:	60f8      	str	r0, [r7, #12]
    
    /*Calculate the required number of ticks*/
    LOC_u32TicksCount = copy_Microseconds * LOC_SYST_Clk;
 80025fa:	687b      	ldr	r3, [r7, #4]
 80025fc:	68fa      	ldr	r2, [r7, #12]
 80025fe:	fb02 f303 	mul.w	r3, r2, r3
 8002602:	f04f 0400 	mov.w	r4, #0
 8002606:	e9c7 3404 	strd	r3, r4, [r7, #16]

    if(SYST_ASSERT_RELOAD_VALUE(LOC_u32TicksCount) && callback)
 800260a:	e9d7 3404 	ldrd	r3, r4, [r7, #16]
 800260e:	f06f 417f 	mvn.w	r1, #4278190080	; 0xff000000
 8002612:	f04f 0200 	mov.w	r2, #0
 8002616:	42a2      	cmp	r2, r4
 8002618:	bf08      	it	eq
 800261a:	4299      	cmpeq	r1, r3
 800261c:	d315      	bcc.n	800264a <MCAL_SYST_SetIntervalPeriodic+0x76>
 800261e:	683b      	ldr	r3, [r7, #0]
 8002620:	2b00      	cmp	r3, #0
 8002622:	d012      	beq.n	800264a <MCAL_SYST_SetIntervalPeriodic+0x76>
    {
        MCAL_SYST_Init(LOC_u32TicksCount);
 8002624:	693b      	ldr	r3, [r7, #16]
 8002626:	4618      	mov	r0, r3
 8002628:	f7ff ff8c 	bl	8002544 <MCAL_SYST_Init>

        /*Set the callback function to be called when the interrupt is raised*/
        Glob_SYSTCallback = callback;
 800262c:	4a0b      	ldr	r2, [pc, #44]	; (800265c <MCAL_SYST_SetIntervalPeriodic+0x88>)
 800262e:	683b      	ldr	r3, [r7, #0]
 8002630:	6013      	str	r3, [r2, #0]

        /*Set the timer mode*/
        Glob_SYSTMode = SYST_PERIODIC_MODE;
 8002632:	4b0b      	ldr	r3, [pc, #44]	; (8002660 <MCAL_SYST_SetIntervalPeriodic+0x8c>)
 8002634:	2201      	movs	r2, #1
 8002636:	701a      	strb	r2, [r3, #0]
    
        /*Enable the interrupt*/
        SYST->CSR |= SYST_CSR_TICKINT_MASK;
 8002638:	4b0a      	ldr	r3, [pc, #40]	; (8002664 <MCAL_SYST_SetIntervalPeriodic+0x90>)
 800263a:	681b      	ldr	r3, [r3, #0]
 800263c:	4a09      	ldr	r2, [pc, #36]	; (8002664 <MCAL_SYST_SetIntervalPeriodic+0x90>)
 800263e:	f043 0302 	orr.w	r3, r3, #2
 8002642:	6013      	str	r3, [r2, #0]

        /*Start the counter*/
        MCAL_SYST_Start();
 8002644:	f7ff ffaa 	bl	800259c <MCAL_SYST_Start>
 8002648:	e001      	b.n	800264e <MCAL_SYST_SetIntervalPeriodic+0x7a>

    }else{
        LOC_eStatus = E_NOK;
 800264a:	2301      	movs	r3, #1
 800264c:	77fb      	strb	r3, [r7, #31]
    }

    return LOC_eStatus;
 800264e:	7ffb      	ldrb	r3, [r7, #31]
}
 8002650:	4618      	mov	r0, r3
 8002652:	3724      	adds	r7, #36	; 0x24
 8002654:	46bd      	mov	sp, r7
 8002656:	bd90      	pop	{r4, r7, pc}
 8002658:	000f4240 	.word	0x000f4240
 800265c:	200000dc 	.word	0x200000dc
 8002660:	200000e0 	.word	0x200000e0
 8002664:	e000e010 	.word	0xe000e010

08002668 <SysTick_Handler>:
*       SYSTICK_ISR_DEFINITION
*===============================================
*/

void SysTick_Handler(void)
{   
 8002668:	b580      	push	{r7, lr}
 800266a:	af00      	add	r7, sp, #0
    /*Stop the counter if we are in the single use mode*/
    if(Glob_SYSTMode == SYST_SINGLE_MODE)
 800266c:	4b0a      	ldr	r3, [pc, #40]	; (8002698 <SysTick_Handler+0x30>)
 800266e:	781b      	ldrb	r3, [r3, #0]
 8002670:	2b00      	cmp	r3, #0
 8002672:	d101      	bne.n	8002678 <SysTick_Handler+0x10>
    {
        MCAL_SYST_Stop();
 8002674:	f7ff ffa0 	bl	80025b8 <MCAL_SYST_Stop>
    }

    if(Glob_SYSTCallback)
 8002678:	4b08      	ldr	r3, [pc, #32]	; (800269c <SysTick_Handler+0x34>)
 800267a:	681b      	ldr	r3, [r3, #0]
 800267c:	2b00      	cmp	r3, #0
 800267e:	d002      	beq.n	8002686 <SysTick_Handler+0x1e>
    {
        Glob_SYSTCallback();
 8002680:	4b06      	ldr	r3, [pc, #24]	; (800269c <SysTick_Handler+0x34>)
 8002682:	681b      	ldr	r3, [r3, #0]
 8002684:	4798      	blx	r3
    }

    SYST->CSR &= ~SYST_CSR_COUNT_FLAG_MASK;
 8002686:	4b06      	ldr	r3, [pc, #24]	; (80026a0 <SysTick_Handler+0x38>)
 8002688:	681b      	ldr	r3, [r3, #0]
 800268a:	4a05      	ldr	r2, [pc, #20]	; (80026a0 <SysTick_Handler+0x38>)
 800268c:	f423 3380 	bic.w	r3, r3, #65536	; 0x10000
 8002690:	6013      	str	r3, [r2, #0]
 8002692:	bf00      	nop
 8002694:	bd80      	pop	{r7, pc}
 8002696:	bf00      	nop
 8002698:	200000e0 	.word	0x200000e0
 800269c:	200000dc 	.word	0x200000dc
 80026a0:	e000e010 	.word	0xe000e010

080026a4 <__libc_init_array>:
 80026a4:	b570      	push	{r4, r5, r6, lr}
 80026a6:	2500      	movs	r5, #0
 80026a8:	4e0c      	ldr	r6, [pc, #48]	; (80026dc <__libc_init_array+0x38>)
 80026aa:	4c0d      	ldr	r4, [pc, #52]	; (80026e0 <__libc_init_array+0x3c>)
 80026ac:	1ba4      	subs	r4, r4, r6
 80026ae:	10a4      	asrs	r4, r4, #2
 80026b0:	42a5      	cmp	r5, r4
 80026b2:	d109      	bne.n	80026c8 <__libc_init_array+0x24>
 80026b4:	f000 f822 	bl	80026fc <_init>
 80026b8:	2500      	movs	r5, #0
 80026ba:	4e0a      	ldr	r6, [pc, #40]	; (80026e4 <__libc_init_array+0x40>)
 80026bc:	4c0a      	ldr	r4, [pc, #40]	; (80026e8 <__libc_init_array+0x44>)
 80026be:	1ba4      	subs	r4, r4, r6
 80026c0:	10a4      	asrs	r4, r4, #2
 80026c2:	42a5      	cmp	r5, r4
 80026c4:	d105      	bne.n	80026d2 <__libc_init_array+0x2e>
 80026c6:	bd70      	pop	{r4, r5, r6, pc}
 80026c8:	f856 3025 	ldr.w	r3, [r6, r5, lsl #2]
 80026cc:	4798      	blx	r3
 80026ce:	3501      	adds	r5, #1
 80026d0:	e7ee      	b.n	80026b0 <__libc_init_array+0xc>
 80026d2:	f856 3025 	ldr.w	r3, [r6, r5, lsl #2]
 80026d6:	4798      	blx	r3
 80026d8:	3501      	adds	r5, #1
 80026da:	e7f2      	b.n	80026c2 <__libc_init_array+0x1e>
 80026dc:	08002878 	.word	0x08002878
 80026e0:	08002878 	.word	0x08002878
 80026e4:	08002878 	.word	0x08002878
 80026e8:	0800287c 	.word	0x0800287c

080026ec <strcpy>:
 80026ec:	4603      	mov	r3, r0
 80026ee:	f811 2b01 	ldrb.w	r2, [r1], #1
 80026f2:	f803 2b01 	strb.w	r2, [r3], #1
 80026f6:	2a00      	cmp	r2, #0
 80026f8:	d1f9      	bne.n	80026ee <strcpy+0x2>
 80026fa:	4770      	bx	lr

080026fc <_init>:
 80026fc:	b5f8      	push	{r3, r4, r5, r6, r7, lr}
 80026fe:	bf00      	nop
 8002700:	bcf8      	pop	{r3, r4, r5, r6, r7}
 8002702:	bc08      	pop	{r3}
 8002704:	469e      	mov	lr, r3
 8002706:	4770      	bx	lr

08002708 <_fini>:
 8002708:	b5f8      	push	{r3, r4, r5, r6, r7, lr}
 800270a:	bf00      	nop
 800270c:	bcf8      	pop	{r3, r4, r5, r6, r7}
 800270e:	bc08      	pop	{r3}
 8002710:	469e      	mov	lr, r3
 8002712:	4770      	bx	lr
